(dp1
S'output'
p2
S"<type 'exceptions.NameError'> name 'image_list' is not defined"
p3
sS'layer'
p4
S'D:\\Applications\\web2py-master\\applications\\Frick\\views\\default/lightbox.html'
p5
sS'code'
p6
S'response.write(\'<head>\\r\\n    <link rel="stylesheet" type="text/css" href="../static/css/font-awesome_min.css" media="screen" />\\r\\n</head>\\r\\n<body>\\r\\n    <form>\\r\\n        <input type="file" id="images" name="images[]" style="display: none;" multiple></input>\\r\\n    </form>\\r\\n    <i class="fa fa-upload" id="btn_upload" onclick="upload_button_click()"></i>\\r\\n    <canvas id="myCanvas" width="800" height="600" style="border:1px solid #000000;"></canvas>\\r\\n</body>\\r\\n\\r\\n<script>\\r\\n    var canvas = document.getElementById(\\\'myCanvas\\\');\\r\\n    var context = canvas.getContext(\\\'2d\\\');\\r\\n    var number_of_columns = 3;\\r\\n    var marginx;\\r\\n    var marginy;\\r\\n    var offsetx;\\r\\n\\r\\n    var selected_image = -1;\\r\\n    var drag = false;\\r\\n    //var image_list = \', escape=False)\nresponse.write(XML(response.json(image_list)))\nresponse.write(\';\\r\\n\\r\\n    function getMousePosition(canvas, event)\\r\\n    {\\r\\n        var rect = canvas.getBoundingClientRect();\\r\\n        return {\\r\\n            x: event.pageX - rect.left,\\r\\n            y: event.pageY - rect.top\\r\\n        };\\r\\n    }\\r\\n\\r\\n    function resizeCanvas() {\\r\\n        canvas.width = window.innerWidth - (window.innerWidth * 0.03);\\r\\n        canvas.height = window.innerHeight - (window.innerHeight * 0.03);\\r\\n        marginx = canvas.width * 0.001;\\r\\n        marginy = canvas.height * 0.001;\\r\\n        offsetx = canvas.width * 0.08;\\r\\n    }\\r\\n\\r\\n    resizeCanvas();\\r\\n\\r\\n    function img(source)\\r\\n    {\\r\\n        this.data = new Image();\\r\\n        this.data.src = source;\\r\\n        this.data.onload = function() {\\r\\n            this.width = this.data.width;\\r\\n            this.height = this.data.height;\\r\\n        }\\r\\n        this.draw = function(x, y, sizex, sizey) {\\r\\n            context.drawImage(this.data, x, y, sizex, sizey);\\r\\n        }\\r\\n        //    context.drawImage(imageObj, marginx + (marginx * 2 * i) + (offsetx * i), marginy, offsetx, (offsetx / this.width) * this.height);\\r\\n    }\\r\\n    var imageArray = [];\\r\\n    var img = [];\\r\\n\\r\\n    for (var i = 0; i<5; i++)\\r\\n    {\\r\\n        imageArray.push(\\\'http://www.html5canvastutorials.com/demos/assets/darth-vader.jpg\\\');\\r\\n\\r\\n        //imageArray[i].draw(marginx + (marginx * 2 * i) + (offsetx * i), marginy, offsetx, (offsetx / imageArray[i].width) * imageArray[i].height);\\r\\n        //var imageObj = new Image();\\r\\n        //imageObj.src = \\\'http://www.html5canvastutorials.com/demos/assets/darth-vader.jpg\\\';\\r\\n\\r\\n        //imageObj.onload = function() {\\r\\n        //    context.drawImage(imageObj, marginx + (marginx * 2 * i) + (offsetx * i), marginy, offsetx, (offsetx / this.width) * this.height);\\r\\n        //}\\r\\n        //imageArray.push(imageObj);\\r\\n    }\\r\\n    imageArray.push(\\\'http://www.html5canvastutorials.com/demos/assets/yoda.jpg\\\');\\r\\n    imageArray.push(\\\'http://www.html5canvastutorials.com/demos/assets/yoda.jpg\\\');\\r\\n    imageArray.push(\\\'http://images6.alphacoders.com/451/451028.jpg\\\');\\r\\n    imageArray.push(\\\'http://www.html5canvastutorials.com/demos/assets/darth-vader.jpg\\\');\\r\\n    imageArray.push(\\\'http://www.html5canvastutorials.com/demos/assets/darth-vader.jpg\\\');\\r\\n    imageArray.push(\\\'http://www.html5canvastutorials.com/demos/assets/darth-vader.jpg\\\');\\r\\n    imageArray.push(\\\'http://www.html5canvastutorials.com/demos/assets/yoda.jpg\\\');\\r\\n    imageArray.push(\\\'http://www.html5canvastutorials.com/demos/assets/yoda.jpg\\\');\\r\\n    imageArray.push(\\\'http://desirewallpapers.com/wp-content/uploads/2014/08/New-Wallpapers.jpg\\\');\\r\\n\\r\\n    function loadImages(arr, callBack){\\r\\n        var count = 0;\\r\\n\\r\\n        for (var i in arr ){\\r\\n            img[i] = new Image();\\r\\n            img[i].src = arr[i];\\r\\n            img[i].onload = function(){\\r\\n                count++;\\r\\n                if(count == arr.length){\\r\\n                    callBack(img);\\r\\n                }\\r\\n            }\\r\\n        }\\r\\n    }\\r\\n\\r\\n    function imageLoaded() {\\r\\n        var offsety;\\r\\n        var temp;\\r\\n        var img_width, img_height;\\r\\n        for (var i in imageArray) {\\r\\n            offsety = 0;\\r\\n            temp = i - number_of_columns + 1;\\r\\n            while (temp > 0) {\\r\\n                //offsety = offsety + (marginy * 2) + ((offsetx / img[temp-1].width) * img[temp-1].height);\\r\\n                offsety = offsety + (marginy * 2) + offsetx;\\r\\n                temp = temp - number_of_columns;\\r\\n            }\\r\\n            //context.drawImage(img[i], marginx + (marginx * 2 * (i % number_of_columns)) + (offsetx * (i % number_of_columns)), marginy + offsety, offsetx, (offsetx / img[i].width) * img[i].height);\\r\\n            if (img[i].width > img[i].height)\\r\\n            {\\r\\n                img_width = offsetx;\\r\\n                img_height = (offsetx / img[i].width) * img[i].height;\\r\\n            }\\r\\n            else\\r\\n            {\\r\\n                img_width = (offsetx / img[i].height) * img[i].width;\\r\\n                img_height = offsetx;\\r\\n            }\\r\\n            context.drawImage(img[i], marginx + (marginx * 2 * (i % number_of_columns)) + (offsetx * (i % number_of_columns)) + ((offsetx - img_width) / 2), marginy + offsety + ((offsetx - img_height) / 2), img_width, img_height);\\r\\n            context.rect((marginx * 2 * (i % number_of_columns)) + (offsetx * (i % number_of_columns)), offsety, offsetx + (marginx * 2), offsetx + (marginy * 2));\\r\\n            context.stroke();\\r\\n        }\\r\\n        //window.requestAnimationFrame(imageLoaded);\\r\\n    }\\r\\n\\r\\n    loadImages(imageArray, imageLoaded );\\r\\n\\r\\n    function getImageMouseCollision(mousepos)\\r\\n    {\\r\\n        var result = -1;\\r\\n        var temp = -1;\\r\\n        for (var i = 1; i<number_of_columns+1; i++)\\r\\n        {\\r\\n            if (mousepos.x < i * (offsetx + 2 * marginx))\\r\\n            {\\r\\n                temp = i - 1;\\r\\n                break;\\r\\n            }\\r\\n        }\\r\\n\\r\\n        if (temp > -1)\\r\\n        {\\r\\n            var offsety = 0;\\r\\n            var i;\\r\\n            for (i = temp; i<imageArray.length; i = i + number_of_columns)\\r\\n            {\\r\\n                //width = (marginy * 2) + ((offsetx / img[i].width) * img[i].height);\\r\\n                width = (marginy * 2) + offsetx;\\r\\n                if (mousepos.y >= offsety && mousepos.y < offsety + width)\\r\\n                {\\r\\n                    result = i;\\r\\n                    break;\\r\\n                }\\r\\n                offsety = offsety + width;\\r\\n            }\\r\\n            if (i >= imageArray.length)\\r\\n            {\\r\\n                result = -1;\\r\\n            }\\r\\n        }\\r\\n        else\\r\\n        {\\r\\n            result = -1;\\r\\n        }\\r\\n\\r\\n        return result;\\r\\n    }\\r\\n\\r\\n    function mouseDownEvent(e)\\r\\n    {\\r\\n        var mousepos = getMousePosition(canvas, e);\\r\\n\\r\\n        selected_image = getImageMouseCollision(mousepos);\\r\\n        if (selected_image > -1)\\r\\n        {\\r\\n            drag = true;\\r\\n            //old_mousepos = mousepos;\\r\\n        }\\r\\n    }\\r\\n    function mouseMoveEvent(e)\\r\\n    {\\r\\n        if (drag)\\r\\n        {\\r\\n            drawScreenWithRect(getMousePosition(canvas, e), false);\\r\\n        }\\r\\n    }\\r\\n    function mouseUpEvent(e)\\r\\n    {\\r\\n        if (drag)\\r\\n        {\\r\\n            drag = false;\\r\\n\\r\\n            drop_image = getImageMouseCollision(getMousePosition(canvas, e));\\r\\n            if (drop_image > -1 && drop_image != selected_image)\\r\\n            {\\r\\n                var temp_image = img[selected_image];\\r\\n                img[selected_image] = img[drop_image];\\r\\n                img[drop_image] = temp_image;\\r\\n            }\\r\\n\\r\\n            drawScreenWithRect(getMousePosition(canvas, e), true);\\r\\n        }\\r\\n    }\\r\\n\\r\\n    canvas.onmousedown = mouseDownEvent;\\r\\n    canvas.onmousemove = mouseMoveEvent;\\r\\n    canvas.onmouseup = mouseUpEvent;\\r\\n\\r\\n\\tfunction drawScreenWithRect(mousepos, erase) {\\r\\n\\t\\tcontext.fillStyle = "#ffffff";\\r\\n\\t\\tcontext.fillRect(0, 0, canvas.width, canvas.height);\\r\\n\\r\\n\\t\\timageLoaded();\\r\\n\\r\\n        if (!erase)\\r\\n        {\\r\\n            context.fillStyle = "#0000ff";\\r\\n            context.fillRect(mousepos.x - 10, mousepos.y - 10, 20, 20);\\r\\n        }\\r\\n\\t}\\r\\n\\r\\n    function upload_button_click() {\\r\\n        $(\\\'#images\\\').click();\\r\\n    }\\r\\n</script>\\r\\n\', escape=False)'
p7
sS'snapshot'
p8
(dp9
S'exception'
p10
(dp11
S'__hash__'
p12
S"<method-wrapper '__hash__' of exceptions.NameError object>"
p13
sS'__setattr__'
p14
S"<method-wrapper '__setattr__' of exceptions.NameError object>"
p15
sS'__reduce_ex__'
p16
S'<built-in method __reduce_ex__ of exceptions.NameError object>'
p17
sS'__getslice__'
p18
S"<method-wrapper '__getslice__' of exceptions.NameError object>"
p19
sS'__getitem__'
p20
S"<method-wrapper '__getitem__' of exceptions.NameError object>"
p21
sS'__setstate__'
p22
S'<built-in method __setstate__ of exceptions.NameError object>'
p23
sS'__reduce__'
p24
S'<built-in method __reduce__ of exceptions.NameError object>'
p25
sS'__str__'
p26
S"<method-wrapper '__str__' of exceptions.NameError object>"
p27
sS'__format__'
p28
S'<built-in method __format__ of exceptions.NameError object>'
p29
sS'__getattribute__'
p30
S"<method-wrapper '__getattribute__' of exceptions.NameError object>"
p31
sS'__class__'
p32
S"<type 'exceptions.NameError'>"
p33
sS'__unicode__'
p34
S'<built-in method __unicode__ of exceptions.NameError object>'
p35
sS'__delattr__'
p36
S"<method-wrapper '__delattr__' of exceptions.NameError object>"
p37
sS'__subclasshook__'
p38
S'<built-in method __subclasshook__ of type object>'
p39
sS'__repr__'
p40
S"<method-wrapper '__repr__' of exceptions.NameError object>"
p41
sS'__dict__'
p42
S'{}'
p43
sS'args'
p44
S'("name \'image_list\' is not defined",)'
p45
sS'__sizeof__'
p46
S'<built-in method __sizeof__ of exceptions.NameError object>'
p47
sS'__doc__'
p48
S"'Name not found globally.'"
p49
sS'__init__'
p50
S"<method-wrapper '__init__' of exceptions.NameError object>"
p51
sS'__new__'
p52
S'<built-in method __new__ of type object>'
p53
ssS'evalue'
p54
S"name 'image_list' is not defined"
p55
sS'request'
p56
cgluon.html
XML_unpickle
p57
(S's\xbbg\x00\x00<div><table><tr><td style="font-weight:bold;vertical-align:top;">ajax</td><td style="vertical-align:top;">:</td><td><div>False</div></td></tr><tr><td style="font-weight:bold;vertical-align:top;">application</td><td style="vertical-align:top;">:</td><td><div>Frick</div></td></tr><tr><td style="font-weight:bold;vertical-align:top;">args</td><td style="vertical-align:top;">:</td><td><div><table></table></div></td></tr><tr><td style="font-weight:bold;vertical-align:top;">cid</td><td style="vertical-align:top;">:</td><td><div>None</div></td></tr><tr><td style="font-weight:bold;vertical-align:top;">client</td><td style="vertical-align:top;">:</td><td><div>127.0.0.1</div></td></tr><tr><td style="font-weight:bold;vertical-align:top;">controller</td><td style="vertical-align:top;">:</td><td><div>default</div></td></tr><tr><td style="font-weight:bold;vertical-align:top;">cookies</td><td style="vertical-align:top;">:</td><td><div><table><tr><td style="font-weight:bold;vertical-align:top;">session_id_admin</td><td style="vertical-align:top;">:</td><td><div>127.0.0.1-24e587db-3441-4955-b294-4853a3d5bf45<table><tr><td style="font-weight:bold;vertical-align:top;">comment</td><td style="vertical-align:top;">:</td><td><div></div></td></tr><tr><td style="font-weight:bold;vertical-align:top;">domain</td><td style="vertical-align:top;">:</td><td><div></div></td></tr><tr><td style="font-weight:bold;vertical-align:top;">expires</td><td style="vertical-align:top;">:</td><td><div></div></td></tr><tr><td style="font-weight:bold;vertical-align:top;">httponly</td><td style="vertical-align:top;">:</td><td><div></div></td></tr><tr><td style="font-weight:bold;vertical-align:top;">max-age</td><td style="vertical-align:top;">:</td><td><div></div></td></tr><tr><td style="font-weight:bold;vertical-align:top;">path</td><td style="vertical-align:top;">:</td><td><div></div></td></tr><tr><td style="font-weight:bold;vertical-align:top;">secure</td><td style="vertical-align:top;">:</td><td><div></div></td></tr><tr><td style="font-weight:bold;vertical-align:top;">version</td><td style="vertical-align:top;">:</td><td><div></div></td></tr></table></div></td></tr><tr><td style="font-weight:bold;vertical-align:top;">session_id_examples</td><td style="vertical-align:top;">:</td><td><div>True<table><tr><td style="font-weight:bold;vertical-align:top;">comment</td><td style="vertical-align:top;">:</td><td><div></div></td></tr><tr><td style="font-weight:bold;vertical-align:top;">domain</td><td style="vertical-align:top;">:</td><td><div></div></td></tr><tr><td style="font-weight:bold;vertical-align:top;">expires</td><td style="vertical-align:top;">:</td><td><div></div></td></tr><tr><td style="font-weight:bold;vertical-align:top;">httponly</td><td style="vertical-align:top;">:</td><td><div></div></td></tr><tr><td style="font-weight:bold;vertical-align:top;">max-age</td><td style="vertical-align:top;">:</td><td><div></div></td></tr><tr><td style="font-weight:bold;vertical-align:top;">path</td><td style="vertical-align:top;">:</td><td><div></div></td></tr><tr><td style="font-weight:bold;vertical-align:top;">secure</td><td style="vertical-align:top;">:</td><td><div></div></td></tr><tr><td style="font-weight:bold;vertical-align:top;">version</td><td style="vertical-align:top;">:</td><td><div></div></td></tr></table></div></td></tr><tr><td style="font-weight:bold;vertical-align:top;">session_id_frick</td><td style="vertical-align:top;">:</td><td><div>127.0.0.1-dd355b60-e856-45c9-ae40-fb509e907da0<table><tr><td style="font-weight:bold;vertical-align:top;">comment</td><td style="vertical-align:top;">:</td><td><div></div></td></tr><tr><td style="font-weight:bold;vertical-align:top;">domain</td><td style="vertical-align:top;">:</td><td><div></div></td></tr><tr><td style="font-weight:bold;vertical-align:top;">expires</td><td style="vertical-align:top;">:</td><td><div></div></td></tr><tr><td style="font-weight:bold;vertical-align:top;">httponly</td><td style="vertical-align:top;">:</td><td><div></div></td></tr><tr><td style="font-weight:bold;vertical-align:top;">max-age</td><td style="vertical-align:top;">:</td><td><div></div></td></tr><tr><td style="font-weight:bold;vertical-align:top;">path</td><td style="vertical-align:top;">:</td><td><div></div></td></tr><tr><td style="font-weight:bold;vertical-align:top;">secure</td><td style="vertical-align:top;">:</td><td><div></div></td></tr><tr><td style="font-weight:bold;vertical-align:top;">version</td><td style="vertical-align:top;">:</td><td><div></div></td></tr></table></div></td></tr><tr><td style="font-weight:bold;vertical-align:top;">session_id_timesup</td><td style="vertical-align:top;">:</td><td><div>127.0.0.1-a288b4b6-344b-4bff-ad57-3672e4dfca2f<table><tr><td style="font-weight:bold;vertical-align:top;">comment</td><td style="vertical-align:top;">:</td><td><div></div></td></tr><tr><td style="font-weight:bold;vertical-align:top;">domain</td><td style="vertical-align:top;">:</td><td><div></div></td></tr><tr><td style="font-weight:bold;vertical-align:top;">expires</td><td style="vertical-align:top;">:</td><td><div></div></td></tr><tr><td style="font-weight:bold;vertical-align:top;">httponly</td><td style="vertical-align:top;">:</td><td><div></div></td></tr><tr><td style="font-weight:bold;vertical-align:top;">max-age</td><td style="vertical-align:top;">:</td><td><div></div></td></tr><tr><td style="font-weight:bold;vertical-align:top;">path</td><td style="vertical-align:top;">:</td><td><div></div></td></tr><tr><td style="font-weight:bold;vertical-align:top;">secure</td><td style="vertical-align:top;">:</td><td><div></div></td></tr><tr><td style="font-weight:bold;vertical-align:top;">version</td><td style="vertical-align:top;">:</td><td><div></div></td></tr></table></div></td></tr><tr><td style="font-weight:bold;vertical-align:top;">session_id_welcome</td><td style="vertical-align:top;">:</td><td><div>127.0.0.1-81734e71-5620-4b9f-9029-bc00c1994e00<table><tr><td style="font-weight:bold;vertical-align:top;">comment</td><td style="vertical-align:top;">:</td><td><div></div></td></tr><tr><td style="font-weight:bold;vertical-align:top;">domain</td><td style="vertical-align:top;">:</td><td><div></div></td></tr><tr><td style="font-weight:bold;vertical-align:top;">expires</td><td style="vertical-align:top;">:</td><td><div></div></td></tr><tr><td style="font-weight:bold;vertical-align:top;">httponly</td><td style="vertical-align:top;">:</td><td><div></div></td></tr><tr><td style="font-weight:bold;vertical-align:top;">max-age</td><td style="vertical-align:top;">:</td><td><div></div></td></tr><tr><td style="font-weight:bold;vertical-align:top;">path</td><td style="vertical-align:top;">:</td><td><div></div></td></tr><tr><td style="font-weight:bold;vertical-align:top;">secure</td><td style="vertical-align:top;">:</td><td><div></div></td></tr><tr><td style="font-weight:bold;vertical-align:top;">version</td><td style="vertical-align:top;">:</td><td><div></div></td></tr></table></div></td></tr></table></div></td></tr><tr><td style="font-weight:bold;vertical-align:top;">env</td><td style="vertical-align:top;">:</td><td><div><table><tr><td style="font-weight:bold;vertical-align:top;">HTTP_ACCEPT</td><td style="vertical-align:top;">:</td><td><div>text/html,application/xhtml+xml,application/xml;q=0.9,image/webp,*/*;q=0.8</div></td></tr><tr><td style="font-weight:bold;vertical-align:top;">HTTP_ACCEPT_ENCODING</td><td style="vertical-align:top;">:</td><td><div>gzip, deflate, sdch</div></td></tr><tr><td style="font-weight:bold;vertical-align:top;">HTTP_ACCEPT_LANGUAGE</td><td style="vertical-align:top;">:</td><td><div>pt-BR,pt;q=0.8,en-US;q=0.6,en;q=0.4</div></td></tr><tr><td style="font-weight:bold;vertical-align:top;">HTTP_CACHE_CONTROL</td><td style="vertical-align:top;">:</td><td><div>max-age=0</div></td></tr><tr><td style="font-weight:bold;vertical-align:top;">HTTP_CONNECTION</td><td style="vertical-align:top;">:</td><td><div>keep-alive</div></td></tr><tr><td style="font-weight:bold;vertical-align:top;">HTTP_COOKIE</td><td style="vertical-align:top;">:</td><td><div>session_id_timesup=127.0.0.1-a288b4b6-344b-4bff-ad57-3672e4dfca2f; session_id_examples=True; session_id_welcome=127.0.0.1-81734e71-5620-4b9f-9029-bc00c1994e00; session_id_frick=127.0.0.1-dd355b60-e856-45c9-ae40-fb509e907da0; session_id_admin=127.0.0.1-24e587db-3441-4955-b294-4853a3d5bf45</div></td></tr><tr><td style="font-weight:bold;vertical-align:top;">HTTP_HOST</td><td style="vertical-align:top;">:</td><td><div>127.0.0.1:8000</div></td></tr><tr><td style="font-weight:bold;vertical-align:top;">HTTP_USER_AGENT</td><td style="vertical-align:top;">:</td><td><div>Mozilla/5.0 (Windows NT 6.3; WOW64) AppleWebKit/537.36 (KHTML, like Gecko) Chrome/40.0.2214.94 Safari/537.36</div></td></tr><tr><td style="font-weight:bold;vertical-align:top;">PATH_INFO</td><td style="vertical-align:top;">:</td><td><div>/Frick/default/lightbox</div></td></tr><tr><td style="font-weight:bold;vertical-align:top;">QUERY_STRING</td><td style="vertical-align:top;">:</td><td><div></div></td></tr><tr><td style="font-weight:bold;vertical-align:top;">REMOTE_ADDR</td><td style="vertical-align:top;">:</td><td><div>127.0.0.1</div></td></tr><tr><td style="font-weight:bold;vertical-align:top;">REMOTE_PORT</td><td style="vertical-align:top;">:</td><td><div>52249</div></td></tr><tr><td style="font-weight:bold;vertical-align:top;">REQUEST_METHOD</td><td style="vertical-align:top;">:</td><td><div>GET</div></td></tr><tr><td style="font-weight:bold;vertical-align:top;">SCRIPT_NAME</td><td style="vertical-align:top;">:</td><td><div></div></td></tr><tr><td style="font-weight:bold;vertical-align:top;">SERVER_NAME</td><td style="vertical-align:top;">:</td><td><div>Apollo</div></td></tr><tr><td style="font-weight:bold;vertical-align:top;">SERVER_PORT</td><td style="vertical-align:top;">:</td><td><div>8000</div></td></tr><tr><td style="font-weight:bold;vertical-align:top;">SERVER_PROTOCOL</td><td style="vertical-align:top;">:</td><td><div>HTTP/1.1</div></td></tr><tr><td style="font-weight:bold;vertical-align:top;">SERVER_SOFTWARE</td><td style="vertical-align:top;">:</td><td><div>Rocket 1.2.6</div></td></tr><tr><td style="font-weight:bold;vertical-align:top;">app_folders</td><td style="vertical-align:top;">:</td><td><div>set([&#x27;D:\\\\Applications\\\\web2py-master\\\\applications\\\\admin\\\\&#x27;, &#x27;D:\\\\Applications\\\\web2py-master\\\\applications\\\\welcome\\\\&#x27;, &#x27;D:\\\\Applications\\\\web2py-master\\\\applications\\\\Frick\\\\&#x27;])</div></td></tr><tr><td style="font-weight:bold;vertical-align:top;">applications_parent</td><td style="vertical-align:top;">:</td><td><div>D:\\Applications\\web2py-master</div></td></tr><tr><td style="font-weight:bold;vertical-align:top;">cmd_args</td><td style="vertical-align:top;">:</td><td><div><table></table></div></td></tr><tr><td style="font-weight:bold;vertical-align:top;">cmd_options</td><td style="vertical-align:top;">:</td><td><div>&lt;Values at 0x36f5608: {&#x27;verbose&#x27;: False, &#x27;ip&#x27;: &#x27;127.0.0.1&#x27;, &#x27;debuglevel&#x27;: 30, &#x27;with_scheduler&#x27;: False, &#x27;ips&#x27;: [&#x27;192.168.56.1&#x27;, &#x27;fe80::94a5:5e73:d9b5:ded3%3&#x27;, &#x27;192.168.1.4&#x27;, &#x27;fe80::2807:4e7f:d1b2:47d0%13&#x27;], &#x27;shutdown_timeout&#x27;: 5, &#x27;taskbar&#x27;: False, &#x27;with_coverage&#x27;: False, &#x27;scheduler_groups&#x27;: None, &#x27;port&#x27;: 8000, &#x27;maxthreads&#x27;: None, &#x27;softcron&#x27;: False, &#x27;server_name&#x27;: &#x27;Apollo&#x27;, &#x27;bpython&#x27;: False, &#x27;nogui&#x27;: False, &#x27;pid_filename&#x27;: &#x27;httpserver.pid&#x27;, &#x27;extcron&#x27;: False, &#x27;runcron&#x27;: False, &#x27;run_system_tests&#x27;: False, &#x27;test&#x27;: None, &#x27;folder&#x27;: &#x27;D:\\\\Applications\\\\web2py-master&#x27;, &#x27;config&#x27;: &#x27;&#x27;, &#x27;minthreads&#x27;: None, &#x27;shell&#x27;: None, &#x27;run&#x27;: &#x27;&#x27;, &#x27;log_filename&#x27;: &#x27;httpserver.log&#x27;, &#x27;profiler_dir&#x27;: None, &#x27;args&#x27;: [&#x27;&#x27;], &#x27;socket_timeout&#x27;: 5, &#x27;ssl_ca_certificate&#x27;: None, &#x27;scheduler&#x27;: None, &#x27;interfaces&#x27;: None, &#x27;ssl_private_key&#x27;: &#x27;&#x27;, &#x27;gae&#x27;: None, &#x27;password&#x27;: &#x27;&lt;ask&gt;&#x27;, &#x27;request_queue_size&#x27;: 5, &#x27;ssl_certificate&#x27;: &#x27;&#x27;, &#x27;cronjob&#x27;: False, &#x27;numthreads&#x27;: None, &#x27;quiet&#x27;: False, &#x27;import_models&#x27;: False, &#x27;timeout&#x27;: 10, &#x27;plain&#x27;: False, &#x27;nobanner&#x27;: False}&gt;</div></td></tr><tr><td style="font-weight:bold;vertical-align:top;">db_sessions</td><td style="vertical-align:top;">:</td><td><div>set([])</div></td></tr><tr><td style="font-weight:bold;vertical-align:top;">debugging</td><td style="vertical-align:top;">:</td><td><div>True</div></td></tr><tr><td style="font-weight:bold;vertical-align:top;">gluon_parent</td><td style="vertical-align:top;">:</td><td><div>D:\\Applications\\web2py-master</div></td></tr><tr><td style="font-weight:bold;vertical-align:top;">http_accept</td><td style="vertical-align:top;">:</td><td><div>text/html,application/xhtml+xml,application/xml;q=0.9,image/webp,*/*;q=0.8</div></td></tr><tr><td style="font-weight:bold;vertical-align:top;">http_accept_encoding</td><td style="vertical-align:top;">:</td><td><div>gzip, deflate, sdch</div></td></tr><tr><td style="font-weight:bold;vertical-align:top;">http_accept_language</td><td style="vertical-align:top;">:</td><td><div>pt-BR,pt;q=0.8,en-US;q=0.6,en;q=0.4</div></td></tr><tr><td style="font-weight:bold;vertical-align:top;">http_cache_control</td><td style="vertical-align:top;">:</td><td><div>max-age=0</div></td></tr><tr><td style="font-weight:bold;vertical-align:top;">http_connection</td><td style="vertical-align:top;">:</td><td><div>keep-alive</div></td></tr><tr><td style="font-weight:bold;vertical-align:top;">http_cookie</td><td style="vertical-align:top;">:</td><td><div>session_id_timesup=127.0.0.1-a288b4b6-344b-4bff-ad57-3672e4dfca2f; session_id_examples=True; session_id_welcome=127.0.0.1-81734e71-5620-4b9f-9029-bc00c1994e00; session_id_frick=127.0.0.1-dd355b60-e856-45c9-ae40-fb509e907da0; session_id_admin=127.0.0.1-24e587db-3441-4955-b294-4853a3d5bf45</div></td></tr><tr><td style="font-weight:bold;vertical-align:top;">http_host</td><td style="vertical-align:top;">:</td><td><div>127.0.0.1:8000</div></td></tr><tr><td style="font-weight:bold;vertical-align:top;">http_user_agent</td><td style="vertical-align:top;">:</td><td><div>Mozilla/5.0 (Windows NT 6.3; WOW64) AppleWebKit/537.36 (KHTML, like Gecko) Chrome/40.0.2214.94 Safari/537.36</div></td></tr><tr><td style="font-weight:bold;vertical-align:top;">is_jython</td><td style="vertical-align:top;">:</td><td><div>False</div></td></tr><tr><td style="font-weight:bold;vertical-align:top;">is_pypy</td><td style="vertical-align:top;">:</td><td><div>False</div></td></tr><tr><td style="font-weight:bold;vertical-align:top;">is_source</td><td style="vertical-align:top;">:</td><td><div>True</div></td></tr><tr><td style="font-weight:bold;vertical-align:top;">local_hosts</td><td style="vertical-align:top;">:</td><td><div><table><tr><td><div>fe80::94a5:5e73:d9b5:ded3%3</div></td></tr><tr><td><div>::ffff:127.0.0.1</div></td></tr><tr><td><div>::1</div></td></tr><tr><td><div>192.168.1.4</div></td></tr><tr><td><div>192.168.56.1</div></td></tr><tr><td><div>Apollo</div></td></tr><tr><td><div>127.0.0.1</div></td></tr><tr><td><div>fe80::2807:4e7f:d1b2:47d0%13</div></td></tr></table></div></td></tr><tr><td style="font-weight:bold;vertical-align:top;">path_info</td><td style="vertical-align:top;">:</td><td><div>/Frick/default/lightbox</div></td></tr><tr><td style="font-weight:bold;vertical-align:top;">query_string</td><td style="vertical-align:top;">:</td><td><div></div></td></tr><tr><td style="font-weight:bold;vertical-align:top;">remote_addr</td><td style="vertical-align:top;">:</td><td><div>127.0.0.1</div></td></tr><tr><td style="font-weight:bold;vertical-align:top;">remote_port</td><td style="vertical-align:top;">:</td><td><div>52249</div></td></tr><tr><td style="font-weight:bold;vertical-align:top;">request_method</td><td style="vertical-align:top;">:</td><td><div>GET</div></td></tr><tr><td style="font-weight:bold;vertical-align:top;">request_uri</td><td style="vertical-align:top;">:</td><td><div>/Frick/default/lightbox</div></td></tr><tr><td style="font-weight:bold;vertical-align:top;">script_name</td><td style="vertical-align:top;">:</td><td><div></div></td></tr><tr><td style="font-weight:bold;vertical-align:top;">server_name</td><td style="vertical-align:top;">:</td><td><div>Apollo</div></td></tr><tr><td style="font-weight:bold;vertical-align:top;">server_port</td><td style="vertical-align:top;">:</td><td><div>8000</div></td></tr><tr><td style="font-weight:bold;vertical-align:top;">server_protocol</td><td style="vertical-align:top;">:</td><td><div>HTTP/1.1</div></td></tr><tr><td style="font-weight:bold;vertical-align:top;">server_software</td><td style="vertical-align:top;">:</td><td><div>Rocket 1.2.6</div></td></tr><tr><td style="font-weight:bold;vertical-align:top;">web2py_path</td><td style="vertical-align:top;">:</td><td><div>D:\\Applications\\web2py-master</div></td></tr><tr><td style="font-weight:bold;vertical-align:top;">web2py_version</td><td style="vertical-align:top;">:</td><td><div>2.9.12-stable+timestamp.2015.01.17.00.07.04</div></td></tr><tr><td style="font-weight:bold;vertical-align:top;">wsgi.errors</td><td style="vertical-align:top;">:</td><td><div>&lt;open file &#x27;&lt;stderr&gt;&#x27;, mode &#x27;w&#x27; at 0x000000000062B150&gt;</div></td></tr><tr><td style="font-weight:bold;vertical-align:top;">wsgi.file_wrapper</td><td style="vertical-align:top;">:</td><td><div>&lt;class wsgiref.util.FileWrapper at 0x000000000332D528&gt;</div></td></tr><tr><td style="font-weight:bold;vertical-align:top;">wsgi.input</td><td style="vertical-align:top;">:</td><td><div>&lt;socket._fileobject object at 0x00000000094865E8&gt;</div></td></tr><tr><td style="font-weight:bold;vertical-align:top;">wsgi.multiprocess</td><td style="vertical-align:top;">:</td><td><div>False</div></td></tr><tr><td style="font-weight:bold;vertical-align:top;">wsgi.multithread</td><td style="vertical-align:top;">:</td><td><div>True</div></td></tr><tr><td style="font-weight:bold;vertical-align:top;">wsgi.run_once</td><td style="vertical-align:top;">:</td><td><div>False</div></td></tr><tr><td style="font-weight:bold;vertical-align:top;">wsgi.url_scheme</td><td style="vertical-align:top;">:</td><td><div>http</div></td></tr><tr><td style="font-weight:bold;vertical-align:top;">wsgi.version</td><td style="vertical-align:top;">:</td><td><div><table><tr><td><div>1</div></td></tr><tr><td><div>0</div></td></tr></table></div></td></tr><tr><td style="font-weight:bold;vertical-align:top;">wsgi_errors</td><td style="vertical-align:top;">:</td><td><div>&lt;open file &#x27;&lt;stderr&gt;&#x27;, mode &#x27;w&#x27; at 0x000000000062B150&gt;</div></td></tr><tr><td style="font-weight:bold;vertical-align:top;">wsgi_file_wrapper</td><td style="vertical-align:top;">:</td><td><div>&lt;class wsgiref.util.FileWrapper at 0x000000000332D528&gt;</div></td></tr><tr><td style="font-weight:bold;vertical-align:top;">wsgi_input</td><td style="vertical-align:top;">:</td><td><div>&lt;socket._fileobject object at 0x00000000094865E8&gt;</div></td></tr><tr><td style="font-weight:bold;vertical-align:top;">wsgi_multiprocess</td><td style="vertical-align:top;">:</td><td><div>False</div></td></tr><tr><td style="font-weight:bold;vertical-align:top;">wsgi_multithread</td><td style="vertical-align:top;">:</td><td><div>True</div></td></tr><tr><td style="font-weight:bold;vertical-align:top;">wsgi_run_once</td><td style="vertical-align:top;">:</td><td><div>False</div></td></tr><tr><td style="font-weight:bold;vertical-align:top;">wsgi_url_scheme</td><td style="vertical-align:top;">:</td><td><div>http</div></td></tr><tr><td style="font-weight:bold;vertical-align:top;">wsgi_version</td><td style="vertical-align:top;">:</td><td><div><table><tr><td><div>1</div></td></tr><tr><td><div>0</div></td></tr></table></div></td></tr></table></div></td></tr><tr><td style="font-weight:bold;vertical-align:top;">extension</td><td style="vertical-align:top;">:</td><td><div>html</div></td></tr><tr><td style="font-weight:bold;vertical-align:top;">folder</td><td style="vertical-align:top;">:</td><td><div>D:\\Applications\\web2py-master\\applications\\Frick\\</div></td></tr><tr><td style="font-weight:bold;vertical-align:top;">function</td><td style="vertical-align:top;">:</td><td><div>lightbox</div></td></tr><tr><td style="font-weight:bold;vertical-align:top;">global_settings</td><td style="vertical-align:top;">:</td><td><div><table><tr><td style="font-weight:bold;vertical-align:top;">app_folders</td><td style="vertical-align:top;">:</td><td><div>set([&#x27;D:\\\\Applications\\\\web2py-master\\\\applications\\\\admin\\\\&#x27;, &#x27;D:\\\\Applications\\\\web2py-master\\\\applications\\\\welcome\\\\&#x27;, &#x27;D:\\\\Applications\\\\web2py-master\\\\applications\\\\Frick\\\\&#x27;])</div></td></tr><tr><td style="font-weight:bold;vertical-align:top;">applications_parent</td><td style="vertical-align:top;">:</td><td><div>D:\\Applications\\web2py-master</div></td></tr><tr><td style="font-weight:bold;vertical-align:top;">cmd_args</td><td style="vertical-align:top;">:</td><td><div><table></table></div></td></tr><tr><td style="font-weight:bold;vertical-align:top;">cmd_options</td><td style="vertical-align:top;">:</td><td><div>&lt;Values at 0x36f5608: {&#x27;verbose&#x27;: False, &#x27;ip&#x27;: &#x27;127.0.0.1&#x27;, &#x27;debuglevel&#x27;: 30, &#x27;with_scheduler&#x27;: False, &#x27;ips&#x27;: [&#x27;192.168.56.1&#x27;, &#x27;fe80::94a5:5e73:d9b5:ded3%3&#x27;, &#x27;192.168.1.4&#x27;, &#x27;fe80::2807:4e7f:d1b2:47d0%13&#x27;], &#x27;shutdown_timeout&#x27;: 5, &#x27;taskbar&#x27;: False, &#x27;with_coverage&#x27;: False, &#x27;scheduler_groups&#x27;: None, &#x27;port&#x27;: 8000, &#x27;maxthreads&#x27;: None, &#x27;softcron&#x27;: False, &#x27;server_name&#x27;: &#x27;Apollo&#x27;, &#x27;bpython&#x27;: False, &#x27;nogui&#x27;: False, &#x27;pid_filename&#x27;: &#x27;httpserver.pid&#x27;, &#x27;extcron&#x27;: False, &#x27;runcron&#x27;: False, &#x27;run_system_tests&#x27;: False, &#x27;test&#x27;: None, &#x27;folder&#x27;: &#x27;D:\\\\Applications\\\\web2py-master&#x27;, &#x27;config&#x27;: &#x27;&#x27;, &#x27;minthreads&#x27;: None, &#x27;shell&#x27;: None, &#x27;run&#x27;: &#x27;&#x27;, &#x27;log_filename&#x27;: &#x27;httpserver.log&#x27;, &#x27;profiler_dir&#x27;: None, &#x27;args&#x27;: [&#x27;&#x27;], &#x27;socket_timeout&#x27;: 5, &#x27;ssl_ca_certificate&#x27;: None, &#x27;scheduler&#x27;: None, &#x27;interfaces&#x27;: None, &#x27;ssl_private_key&#x27;: &#x27;&#x27;, &#x27;gae&#x27;: None, &#x27;password&#x27;: &#x27;&lt;ask&gt;&#x27;, &#x27;request_queue_size&#x27;: 5, &#x27;ssl_certificate&#x27;: &#x27;&#x27;, &#x27;cronjob&#x27;: False, &#x27;numthreads&#x27;: None, &#x27;quiet&#x27;: False, &#x27;import_models&#x27;: False, &#x27;timeout&#x27;: 10, &#x27;plain&#x27;: False, &#x27;nobanner&#x27;: False}&gt;</div></td></tr><tr><td style="font-weight:bold;vertical-align:top;">db_sessions</td><td style="vertical-align:top;">:</td><td><div>set([])</div></td></tr><tr><td style="font-weight:bold;vertical-align:top;">debugging</td><td style="vertical-align:top;">:</td><td><div>True</div></td></tr><tr><td style="font-weight:bold;vertical-align:top;">gluon_parent</td><td style="vertical-align:top;">:</td><td><div>D:\\Applications\\web2py-master</div></td></tr><tr><td style="font-weight:bold;vertical-align:top;">is_jython</td><td style="vertical-align:top;">:</td><td><div>False</div></td></tr><tr><td style="font-weight:bold;vertical-align:top;">is_pypy</td><td style="vertical-align:top;">:</td><td><div>False</div></td></tr><tr><td style="font-weight:bold;vertical-align:top;">is_source</td><td style="vertical-align:top;">:</td><td><div>True</div></td></tr><tr><td style="font-weight:bold;vertical-align:top;">local_hosts</td><td style="vertical-align:top;">:</td><td><div><table><tr><td><div>fe80::94a5:5e73:d9b5:ded3%3</div></td></tr><tr><td><div>::ffff:127.0.0.1</div></td></tr><tr><td><div>::1</div></td></tr><tr><td><div>192.168.1.4</div></td></tr><tr><td><div>192.168.56.1</div></td></tr><tr><td><div>Apollo</div></td></tr><tr><td><div>127.0.0.1</div></td></tr><tr><td><div>fe80::2807:4e7f:d1b2:47d0%13</div></td></tr></table></div></td></tr><tr><td style="font-weight:bold;vertical-align:top;">web2py_version</td><td style="vertical-align:top;">:</td><td><div>2.9.12-stable+timestamp.2015.01.17.00.07.04</div></td></tr></table></div></td></tr><tr><td style="font-weight:bold;vertical-align:top;">is_https</td><td style="vertical-align:top;">:</td><td><div>False</div></td></tr><tr><td style="font-weight:bold;vertical-align:top;">is_local</td><td style="vertical-align:top;">:</td><td><div>True</div></td></tr><tr><td style="font-weight:bold;vertical-align:top;">is_restful</td><td style="vertical-align:top;">:</td><td><div>False</div></td></tr><tr><td style="font-weight:bold;vertical-align:top;">is_sheduler</td><td style="vertical-align:top;">:</td><td><div>None</div></td></tr><tr><td style="font-weight:bold;vertical-align:top;">is_shell</td><td style="vertical-align:top;">:</td><td><div>None</div></td></tr><tr><td style="font-weight:bold;vertical-align:top;">now</td><td style="vertical-align:top;">:</td><td><div>datetime.datetime(2015, 2, 2, 0, 33, 49, 226000)</div></td></tr><tr><td style="font-weight:bold;vertical-align:top;">raw_args</td><td style="vertical-align:top;">:</td><td><div></div></td></tr><tr><td style="font-weight:bold;vertical-align:top;">raw_extension</td><td style="vertical-align:top;">:</td><td><div>None</div></td></tr><tr><td style="font-weight:bold;vertical-align:top;">url</td><td style="vertical-align:top;">:</td><td><div>/Frick/default/lightbox</div></td></tr><tr><td style="font-weight:bold;vertical-align:top;">utcnow</td><td style="vertical-align:top;">:</td><td><div>datetime.datetime(2015, 2, 2, 5, 33, 49, 226000)</div></td></tr><tr><td style="font-weight:bold;vertical-align:top;">uuid</td><td style="vertical-align:top;">:</td><td><div>Frick/127.0.0.1.2015-02-02.00-33-49.ede8afd9-ed8f-4d56-9c42-329d3f880d62</div></td></tr><tr><td style="font-weight:bold;vertical-align:top;">wsgi</td><td style="vertical-align:top;">:</td><td><div>&lt;gluon.main.LazyWSGI object at 0x000000000A08A048&gt;</div></td></tr></table></div>'
tRp58
sS'frames'
p59
(lp60
(dp61
S'file'
p62
S'D:\\Applications\\web2py-master\\gluon\\restricted.py'
p63
sS'dump'
p64
(dp65
S'environment'
p66
S"{'A': <class 'gluon.html.A'>, 'ANY_OF': <class 'gluon.validators.ANY_OF'>, 'ASSIGNJS': <function ASSIGNJS>, 'Auth': <class 'gluon.tools.Auth'>, 'B': <class 'gluon.html.B'>, 'BEAUTIFY': <class 'gluon.html.BEAUTIFY'>, 'BODY': <class 'gluon.html.BODY'>, 'BR': <class 'gluon.html.BR'>, 'BUTTON': <class 'gluon.html.BUTTON'>, 'CAT': <class 'gluon.html.CAT'>, ...}"
p67
sS'ccode'
p68
S'<code object <module> at 0000000009E47CB0, file ...tions\\Frick\\views\\default/lightbox.html", line 1>'
p69
ssS'lnum'
p70
I224
sS'lines'
p71
(dp72
I224
S'        exec ccode in environment'
p73
sI225
S'    except HTTP:'
p74
sI226
S'        raise'
p75
sI227
S'    except RestrictedError:'
p76
sI228
S'        # do not encapsulate (obfuscate) the original RestrictedError'
p77
sI219
S'    try:'
p78
sI220
S'        if isinstance(code, types.CodeType):'
p79
sI221
S'            ccode = code'
p80
sI222
S'        else:'
p81
sI223
S'            ccode = compile2(code, layer)'
p82
ssS'call'
p83
S'(code=\'response.write(\\\'<head>\\\\r\\\\n    <link rel="stylesh...lick();\\\\r\\\\n    }\\\\r\\\\n</script>\\\\r\\\\n\\\', escape=False)\', environment={\'A\': <class \'gluon.html.A\'>, \'ANY_OF\': <class \'gluon.validators.ANY_OF\'>, \'ASSIGNJS\': <function ASSIGNJS>, \'Auth\': <class \'gluon.tools.Auth\'>, \'B\': <class \'gluon.html.B\'>, \'BEAUTIFY\': <class \'gluon.html.BEAUTIFY\'>, \'BODY\': <class \'gluon.html.BODY\'>, \'BR\': <class \'gluon.html.BR\'>, \'BUTTON\': <class \'gluon.html.BUTTON\'>, \'CAT\': <class \'gluon.html.CAT\'>, ...}, layer=r\'D:\\Applications\\web2py-master\\applications\\Frick\\views\\default/lightbox.html\')'
p84
sS'func'
p85
S'restricted'
p86
sa(dp87
g62
S'D:\\Applications\\web2py-master\\applications\\Frick\\views\\default\\lightbox.html'
p88
sg64
(dp89
S'media'
p90
S'undefined'
p91
sS'href'
p92
g91
sS'link'
p93
g91
sS'builtintype'
p94
S"<type 'type'>"
p95
sS'rel'
p96
g91
ssg70
I2
sg71
(dp97
I1
S'response.write(\'<head>\\r\\n    <link rel="stylesheet" type="text/css" href="../static/css/font-awesome_min.css" media="screen" />\\r\\n</head>\\r\\n<body>\\r\\n    <form>\\r\\n        <input type="file" id="images" name="images[]" style="display: none;" multiple></input>\\r\\n    </form>\\r\\n    <i class="fa fa-upload" id="btn_upload" onclick="upload_button_click()"></i>\\r\\n    <canvas id="myCanvas" width="800" height="600" style="border:1px solid #000000;"></canvas>\\r\\n</body>\\r\\n\\r\\n<script>\\r\\n    var canvas = document.getElementById(\\\'myCanvas\\\');\\r\\n    var context = canvas.getContext(\\\'2d\\\');\\r\\n    var number_of_columns = 3;\\r\\n    var marginx;\\r\\n    var marginy;\\r\\n    var offsetx;\\r\\n\\r\\n    var selected_image = -1;\\r\\n    var drag = false;\\r\\n    //var image_list = \', escape=False)'
p98
sI2
S'response.write(XML(response.json(image_list)))'
p99
sI3
S'response.write(\';\\r\\n\\r\\n    function getMousePosition(canvas, event)\\r\\n    {\\r\\n        var rect = canvas.getBoundingClientRect();\\r\\n        return {\\r\\n            x: event.pageX - rect.left,\\r\\n            y: event.pageY - rect.top\\r\\n        };\\r\\n    }\\r\\n\\r\\n    function resizeCanvas() {\\r\\n        canvas.width = window.innerWidth - (window.innerWidth * 0.03);\\r\\n        canvas.height = window.innerHeight - (window.innerHeight * 0.03);\\r\\n        marginx = canvas.width * 0.001;\\r\\n        marginy = canvas.height * 0.001;\\r\\n        offsetx = canvas.width * 0.08;\\r\\n    }\\r\\n\\r\\n    resizeCanvas();\\r\\n\\r\\n    function img(source)\\r\\n    {\\r\\n        this.data = new Image();\\r\\n        this.data.src = source;\\r\\n        this.data.onload = function() {\\r\\n            this.width = this.data.width;\\r\\n            this.height = this.data.height;\\r\\n        }\\r\\n        this.draw = function(x, y, sizex, sizey) {\\r\\n            context.drawImage(this.data, x, y, sizex, sizey);\\r\\n        }\\r\\n        //    context.drawImage(imageObj, marginx + (marginx * 2 * i) + (offsetx * i), marginy, offsetx, (offsetx / this.width) * this.height);\\r\\n    }\\r\\n    var imageArray = [];\\r\\n    var img = [];\\r\\n\\r\\n    for (var i = 0; i<5; i++)\\r\\n    {\\r\\n        imageArray.push(\\\'http://www.html5canvastutorials.com/demos/assets/darth-vader.jpg\\\');\\r\\n\\r\\n        //imageArray[i].draw(marginx + (marginx * 2 * i) + (offsetx * i), marginy, offsetx, (offsetx / imageArray[i].width) * imageArray[i].height);\\r\\n        //var imageObj = new Image();\\r\\n        //imageObj.src = \\\'http://www.html5canvastutorials.com/demos/assets/darth-vader.jpg\\\';\\r\\n\\r\\n        //imageObj.onload = function() {\\r\\n        //    context.drawImage(imageObj, marginx + (marginx * 2 * i) + (offsetx * i), marginy, offsetx, (offsetx / this.width) * this.height);\\r\\n        //}\\r\\n        //imageArray.push(imageObj);\\r\\n    }\\r\\n    imageArray.push(\\\'http://www.html5canvastutorials.com/demos/assets/yoda.jpg\\\');\\r\\n    imageArray.push(\\\'http://www.html5canvastutorials.com/demos/assets/yoda.jpg\\\');\\r\\n    imageArray.push(\\\'http://images6.alphacoders.com/451/451028.jpg\\\');\\r\\n    imageArray.push(\\\'http://www.html5canvastutorials.com/demos/assets/darth-vader.jpg\\\');\\r\\n    imageArray.push(\\\'http://www.html5canvastutorials.com/demos/assets/darth-vader.jpg\\\');\\r\\n    imageArray.push(\\\'http://www.html5canvastutorials.com/demos/assets/darth-vader.jpg\\\');\\r\\n    imageArray.push(\\\'http://www.html5canvastutorials.com/demos/assets/yoda.jpg\\\');\\r\\n    imageArray.push(\\\'http://www.html5canvastutorials.com/demos/assets/yoda.jpg\\\');\\r\\n    imageArray.push(\\\'http://desirewallpapers.com/wp-content/uploads/2014/08/New-Wallpapers.jpg\\\');\\r\\n\\r\\n    function loadImages(arr, callBack){\\r\\n        var count = 0;\\r\\n\\r\\n        for (var i in arr ){\\r\\n            img[i] = new Image();\\r\\n            img[i].src = arr[i];\\r\\n            img[i].onload = function(){\\r\\n                count++;\\r\\n                if(count == arr.length){\\r\\n                    callBack(img);\\r\\n                }\\r\\n            }\\r\\n        }\\r\\n    }\\r\\n\\r\\n    function imageLoaded() {\\r\\n        var offsety;\\r\\n        var temp;\\r\\n        var img_width, img_height;\\r\\n        for (var i in imageArray) {\\r\\n            offsety = 0;\\r\\n            temp = i - number_of_columns + 1;\\r\\n            while (temp > 0) {\\r\\n                //offsety = offsety + (marginy * 2) + ((offsetx / img[temp-1].width) * img[temp-1].height);\\r\\n                offsety = offsety + (marginy * 2) + offsetx;\\r\\n                temp = temp - number_of_columns;\\r\\n            }\\r\\n            //context.drawImage(img[i], marginx + (marginx * 2 * (i % number_of_columns)) + (offsetx * (i % number_of_columns)), marginy + offsety, offsetx, (offsetx / img[i].width) * img[i].height);\\r\\n            if (img[i].width > img[i].height)\\r\\n            {\\r\\n                img_width = offsetx;\\r\\n                img_height = (offsetx / img[i].width) * img[i].height;\\r\\n            }\\r\\n            else\\r\\n            {\\r\\n                img_width = (offsetx / img[i].height) * img[i].width;\\r\\n                img_height = offsetx;\\r\\n            }\\r\\n            context.drawImage(img[i], marginx + (marginx * 2 * (i % number_of_columns)) + (offsetx * (i % number_of_columns)) + ((offsetx - img_width) / 2), marginy + offsety + ((offsetx - img_height) / 2), img_width, img_height);\\r\\n            context.rect((marginx * 2 * (i % number_of_columns)) + (offsetx * (i % number_of_columns)), offsety, offsetx + (marginx * 2), offsetx + (marginy * 2));\\r\\n            context.stroke();\\r\\n        }\\r\\n        //window.requestAnimationFrame(imageLoaded);\\r\\n    }\\r\\n\\r\\n    loadImages(imageArray, imageLoaded );\\r\\n\\r\\n    function getImageMouseCollision(mousepos)\\r\\n    {\\r\\n        var result = -1;\\r\\n        var temp = -1;\\r\\n        for (var i = 1; i<number_of_columns+1; i++)\\r\\n        {\\r\\n            if (mousepos.x < i * (offsetx + 2 * marginx))\\r\\n            {\\r\\n                temp = i - 1;\\r\\n                break;\\r\\n            }\\r\\n        }\\r\\n\\r\\n        if (temp > -1)\\r\\n        {\\r\\n            var offsety = 0;\\r\\n            var i;\\r\\n            for (i = temp; i<imageArray.length; i = i + number_of_columns)\\r\\n            {\\r\\n                //width = (marginy * 2) + ((offsetx / img[i].width) * img[i].height);\\r\\n                width = (marginy * 2) + offsetx;\\r\\n                if (mousepos.y >= offsety && mousepos.y < offsety + width)\\r\\n                {\\r\\n                    result = i;\\r\\n                    break;\\r\\n                }\\r\\n                offsety = offsety + width;\\r\\n            }\\r\\n            if (i >= imageArray.length)\\r\\n            {\\r\\n                result = -1;\\r\\n            }\\r\\n        }\\r\\n        else\\r\\n        {\\r\\n            result = -1;\\r\\n        }\\r\\n\\r\\n        return result;\\r\\n    }\\r\\n\\r\\n    function mouseDownEvent(e)\\r\\n    {\\r\\n        var mousepos = getMousePosition(canvas, e);\\r\\n\\r\\n        selected_image = getImageMouseCollision(mousepos);\\r\\n        if (selected_image > -1)\\r\\n        {\\r\\n            drag = true;\\r\\n            //old_mousepos = mousepos;\\r\\n        }\\r\\n    }\\r\\n    function mouseMoveEvent(e)\\r\\n    {\\r\\n        if (drag)\\r\\n        {\\r\\n            drawScreenWithRect(getMousePosition(canvas, e), false);\\r\\n        }\\r\\n    }\\r\\n    function mouseUpEvent(e)\\r\\n    {\\r\\n        if (drag)\\r\\n        {\\r\\n            drag = false;\\r\\n\\r\\n            drop_image = getImageMouseCollision(getMousePosition(canvas, e));\\r\\n            if (drop_image > -1 && drop_image != selected_image)\\r\\n            {\\r\\n                var temp_image = img[selected_image];\\r\\n                img[selected_image] = img[drop_image];\\r\\n                img[drop_image] = temp_image;\\r\\n            }\\r\\n\\r\\n            drawScreenWithRect(getMousePosition(canvas, e), true);\\r\\n        }\\r\\n    }\\r\\n\\r\\n    canvas.onmousedown = mouseDownEvent;\\r\\n    canvas.onmousemove = mouseMoveEvent;\\r\\n    canvas.onmouseup = mouseUpEvent;\\r\\n\\r\\n\\tfunction drawScreenWithRect(mousepos, erase) {\\r\\n\\t\\tcontext.fillStyle = "#ffffff";\\r\\n\\t\\tcontext.fillRect(0, 0, canvas.width, canvas.height);\\r\\n\\r\\n\\t\\timageLoaded();\\r\\n\\r\\n        if (!erase)\\r\\n        {\\r\\n            context.fillStyle = "#0000ff";\\r\\n            context.fillRect(mousepos.x - 10, mousepos.y - 10, 20, 20);\\r\\n        }\\r\\n\\t}\\r\\n\\r\\n    function upload_button_click() {\\r\\n        $(\\\'#images\\\').click();\\r\\n    }\\r\\n</script>\\r\\n\', escape=False)'
p100
ssg83
S'()'
p101
sg85
S'<module>'
p102
sasS'pyver'
p103
S'Python 2.7.8: D:\\Applications\\Python 2.7.8\\python.exe (prefix: D:\\Applications\\Python 2.7.8)'
p104
sS'session'
p105
g57
(S's\x1a\x00\x00\x00<div><table></table></div>'
tRp106
sS'etype'
p107
S"<type 'exceptions.NameError'>"
p108
sS'date'
p109
S'Mon Feb 02 00:33:49 2015'
p110
sS'response'
p111
g57
(S's\xa92\x00\x00<div><table><tr><td style="font-weight:bold;vertical-align:top;">body</td><td style="vertical-align:top;">:</td><td><div>&lt;cStringIO.StringO object at 0x00000000092348F0&gt;</div></td></tr><tr><td style="font-weight:bold;vertical-align:top;">cookies</td><td style="vertical-align:top;">:</td><td><div><table><tr><td style="font-weight:bold;vertical-align:top;">session_id_frick</td><td style="vertical-align:top;">:</td><td><div>127.0.0.1-dd355b60-e856-45c9-ae40-fb509e907da0<table><tr><td style="font-weight:bold;vertical-align:top;">comment</td><td style="vertical-align:top;">:</td><td><div></div></td></tr><tr><td style="font-weight:bold;vertical-align:top;">domain</td><td style="vertical-align:top;">:</td><td><div></div></td></tr><tr><td style="font-weight:bold;vertical-align:top;">expires</td><td style="vertical-align:top;">:</td><td><div></div></td></tr><tr><td style="font-weight:bold;vertical-align:top;">httponly</td><td style="vertical-align:top;">:</td><td><div></div></td></tr><tr><td style="font-weight:bold;vertical-align:top;">max-age</td><td style="vertical-align:top;">:</td><td><div></div></td></tr><tr><td style="font-weight:bold;vertical-align:top;">path</td><td style="vertical-align:top;">:</td><td><div>/</div></td></tr><tr><td style="font-weight:bold;vertical-align:top;">secure</td><td style="vertical-align:top;">:</td><td><div></div></td></tr><tr><td style="font-weight:bold;vertical-align:top;">version</td><td style="vertical-align:top;">:</td><td><div></div></td></tr></table></div></td></tr></table></div></td></tr><tr><td style="font-weight:bold;vertical-align:top;">delimiters</td><td style="vertical-align:top;">:</td><td><div><table><tr><td><div>{{</div></td></tr><tr><td><div>}}</div></td></tr></table></div></td></tr><tr><td style="font-weight:bold;vertical-align:top;">files</td><td style="vertical-align:top;">:</td><td><div><table></table></div></td></tr><tr><td style="font-weight:bold;vertical-align:top;">flash</td><td style="vertical-align:top;">:</td><td><div></div></td></tr><tr><td style="font-weight:bold;vertical-align:top;">form_label_separator</td><td style="vertical-align:top;">:</td><td><div>: </div></td></tr><tr><td style="font-weight:bold;vertical-align:top;">formstyle</td><td style="vertical-align:top;">:</td><td><div>table3cols</div></td></tr><tr><td style="font-weight:bold;vertical-align:top;">generic_patterns</td><td style="vertical-align:top;">:</td><td><div><table><tr><td><div>*</div></td></tr></table></div></td></tr><tr><td style="font-weight:bold;vertical-align:top;">google_analytics_id</td><td style="vertical-align:top;">:</td><td><div>None</div></td></tr><tr><td style="font-weight:bold;vertical-align:top;">headers</td><td style="vertical-align:top;">:</td><td><div><table><tr><td style="font-weight:bold;vertical-align:top;">X-Powered-By</td><td style="vertical-align:top;">:</td><td><div>web2py</div></td></tr></table></div></td></tr><tr><td style="font-weight:bold;vertical-align:top;">logo</td><td style="vertical-align:top;">:</td><td><div><a class="brand" href="http://www.web2py.com/"><b>web<span>2</span>py</b>&trade;&nbsp;</a></div></td></tr><tr><td style="font-weight:bold;vertical-align:top;">menu</td><td style="vertical-align:top;">:</td><td><div><table><tr><td><div><table><tr><td><div>Principal</div></td></tr><tr><td><div>False</div></td></tr><tr><td><div>/Frick/default/index</div></td></tr><tr><td><div><table></table></div></td></tr></table></div></td></tr><tr><td><div><table><tr><td><div><span class="highlighted">web2py</span></div></td></tr><tr><td><div>False</div></td></tr><tr><td><div>http://web2py.com</div></td></tr><tr><td><div><table><tr><td><div><table><tr><td><div>Meus sites</div></td></tr><tr><td><div>False</div></td></tr><tr><td><div>/admin/default/site</div></td></tr></table></div></td></tr><tr><td><div><table><tr><td><div>Esta aplica\xc3\xa7\xc3\xa3o</div></td></tr><tr><td><div>False</div></td></tr><tr><td><div>/admin/default/design/Frick</div></td></tr><tr><td><div>[(&lt;lazyT &#x27;Controller&#x27;&gt;, False, &#x27;/admin/default/edit/Frick/controllers/default.py&#x27;), (&lt;lazyT &#x27;View&#x27;&gt;, False, &#x27;/admin/default/edit/Frick/views/default/lightbox.html&#x27;), (&lt;lazyT &#x27;Layout&#x27;&gt;, False, &#x27;/admin/default/edit/Frick/views/layout.html&#x27;), (&lt;lazyT &#x27;Stylesheet&#x27;&gt;, False, &#x27;/admin/default/edit/Frick/static/css/web2py.css&#x27;), (&lt;lazyT &#x27;DB Model&#x27;&gt;, False, &#x27;/admin/default/edit/Frick/models/db.py&#x27;), (&lt;lazyT &#x27;Menu Model&#x27;&gt;, False, &#x27;/admin/default/edit/Frick/models/menu.py&#x27;), (&lt;lazyT &#x27;Database&#x27;&gt;, False, &#x27;/Frick/appadmin/index&#x27;), (&lt;lazyT &#x27;Errors&#x27;&gt;, False, &#x27;/admin/default/errors/Frick&#x27;), (&lt;lazyT &#x27;About&#x27;&gt;, False, &#x27;/admin/default/about/Frick&#x27;)]</div></td></tr></table></div></td></tr><tr><td><div><table><tr><td><div>web2py.com</div></td></tr><tr><td><div>False</div></td></tr><tr><td><div>http://www.web2py.com</div></td></tr><tr><td><div>[(&lt;lazyT &#x27;Download&#x27;&gt;, False, &#x27;http://www.web2py.com/examples/default/download&#x27;), (&lt;lazyT &#x27;Support&#x27;&gt;, False, &#x27;http://www.web2py.com/examples/default/support&#x27;), (&lt;lazyT &#x27;Demo&#x27;&gt;, False, &#x27;http://web2py.com/demo_admin&#x27;), (&lt;lazyT &#x27;Quick Examples&#x27;&gt;, False, &#x27;http://web2py.com/examples/default/examples&#x27;), (&lt;lazyT &#x27;FAQ&#x27;&gt;, False, &#x27;http://web2py.com/AlterEgo&#x27;), (&lt;lazyT &#x27;Videos&#x27;&gt;, False, &#x27;http://www.web2py.com/examples/default/videos/&#x27;), (&lt;lazyT &#x27;Free Applications&#x27;&gt;, False, &#x27;http://web2py.com/appliances&#x27;), (&lt;lazyT &#x27;Plugins&#x27;&gt;, False, &#x27;http://web2py.com/plugins&#x27;), (&lt;lazyT &#x27;Layouts&#x27;&gt;, False, &#x27;http://web2py.com/layouts&#x27;), (&lt;lazyT &#x27;Recipes&#x27;&gt;, False, &#x27;http://web2pyslices.com/&#x27;), (&lt;lazyT &#x27;Semantic&#x27;&gt;, False, &#x27;http://web2py.com/semantic&#x27;)]</div></td></tr></table></div></td></tr><tr><td><div><table><tr><td><div>Documenta\xc3\xa7\xc3\xa3o</div></td></tr><tr><td><div>False</div></td></tr><tr><td><div>http://www.web2py.com/book</div></td></tr><tr><td><div>[(&lt;lazyT &#x27;Preface&#x27;&gt;, False, &#x27;http://www.web2py.com/book/default/chapter/00&#x27;), (&lt;lazyT &#x27;Introduction&#x27;&gt;, False, &#x27;http://www.web2py.com/book/default/chapter/01&#x27;), (&lt;lazyT &#x27;Python&#x27;&gt;, False, &#x27;http://www.web2py.com/book/default/chapter/02&#x27;), (&lt;lazyT &#x27;Overview&#x27;&gt;, False, &#x27;http://www.web2py.com/book/default/chapter/03&#x27;), (&lt;lazyT &#x27;The Core&#x27;&gt;, False, &#x27;http://www.web2py.com/book/default/chapter/04&#x27;), (&lt;lazyT &#x27;The Views&#x27;&gt;, False, &#x27;http://www.web2py.com/book/default/chapter/05&#x27;), (&lt;lazyT &#x27;Database&#x27;&gt;, False, &#x27;http://www.web2py.com/book/default/chapter/06&#x27;), (&lt;lazyT &#x27;Forms and Validators&#x27;&gt;, False, &#x27;http://www.web2py.com/book/default/chapter/07&#x27;), (&lt;lazyT &#x27;Email and SMS&#x27;&gt;, False, &#x27;http://www.web2py.com/book/default/chapter/08&#x27;), (&lt;lazyT &#x27;Access Control&#x27;&gt;, False, &#x27;http://www.web2py.com/book/default/chapter/09&#x27;), (&lt;lazyT &#x27;Services&#x27;&gt;, False, &#x27;http://www.web2py.com/book/default/chapter/10&#x27;), (&lt;lazyT &#x27;Ajax Recipes&#x27;&gt;, False, &#x27;http://www.web2py.com/book/default/chapter/11&#x27;), (&lt;lazyT &#x27;Components and Plugins&#x27;&gt;, False, &#x27;http://www.web2py.com/book/default/chapter/12&#x27;), (&lt;lazyT &#x27;Deployment Recipes&#x27;&gt;, False, &#x27;http://www.web2py.com/book/default/chapter/13&#x27;), (&lt;lazyT &#x27;Other Recipes&#x27;&gt;, False, &#x27;http://www.web2py.com/book/default/chapter/14&#x27;), (&lt;lazyT &#x27;Buy this book&#x27;&gt;, False, &#x27;http://stores.lulu.com/web2py&#x27;)]</div></td></tr></table></div></td></tr><tr><td><div><table><tr><td><div>Comunidade</div></td></tr><tr><td><div>False</div></td></tr><tr><td><div>None</div></td></tr><tr><td><div>[(&lt;lazyT &#x27;Groups&#x27;&gt;, False, &#x27;http://www.web2py.com/examples/default/usergroups&#x27;), (&lt;lazyT &#x27;Twitter&#x27;&gt;, False, &#x27;http://twitter.com/web2py&#x27;), (&lt;lazyT &#x27;Live Chat&#x27;&gt;, False, &#x27;http://webchat.freenode.net/?channels=web2py&#x27;)]</div></td></tr></table></div></td></tr><tr><td><div><table><tr><td><div>Plugins</div></td></tr><tr><td><div>False</div></td></tr><tr><td><div>None</div></td></tr><tr><td><div>[(&#x27;plugin_wiki&#x27;, False, &#x27;http://web2py.com/examples/default/download&#x27;), (&lt;lazyT &#x27;Other Plugins&#x27;&gt;, False, &#x27;http://web2py.com/plugins&#x27;), (&lt;lazyT &#x27;Layout Plugins&#x27;&gt;, False, &#x27;http://web2py.com/layouts&#x27;)]</div></td></tr></table></div></td></tr></table></div></td></tr></table></div></td></tr></table></div></td></tr><tr><td style="font-weight:bold;vertical-align:top;">meta</td><td style="vertical-align:top;">:</td><td><div><table><tr><td style="font-weight:bold;vertical-align:top;">author</td><td style="vertical-align:top;">:</td><td><div>Your Name &lt;you@example.com&gt;</div></td></tr><tr><td style="font-weight:bold;vertical-align:top;">generator</td><td style="vertical-align:top;">:</td><td><div>Web2py Web Framework</div></td></tr><tr><td style="font-weight:bold;vertical-align:top;">keywords</td><td style="vertical-align:top;">:</td><td><div>web2py, python, framework</div></td></tr></table></div></td></tr><tr><td style="font-weight:bold;vertical-align:top;">models_to_run</td><td style="vertical-align:top;">:</td><td><div><table><tr><td><div>^\\w+\\.py$</div></td></tr><tr><td><div>^default/\\w+\\.py$</div></td></tr><tr><td><div>^default/lightbox/\\w+\\.py$</div></td></tr></table></div></td></tr><tr><td style="font-weight:bold;vertical-align:top;">postprocessing</td><td style="vertical-align:top;">:</td><td><div><table></table></div></td></tr><tr><td style="font-weight:bold;vertical-align:top;">session_client</td><td style="vertical-align:top;">:</td><td><div>127.0.0.1</div></td></tr><tr><td style="font-weight:bold;vertical-align:top;">session_cookie_compression_level</td><td style="vertical-align:top;">:</td><td><div>None</div></td></tr><tr><td style="font-weight:bold;vertical-align:top;">session_cookie_expires</td><td style="vertical-align:top;">:</td><td><div>None</div></td></tr><tr><td style="font-weight:bold;vertical-align:top;">session_cookie_key</td><td style="vertical-align:top;">:</td><td><div>None</div></td></tr><tr><td style="font-weight:bold;vertical-align:top;">session_data_name</td><td style="vertical-align:top;">:</td><td><div>session_data_frick</div></td></tr><tr><td style="font-weight:bold;vertical-align:top;">session_file</td><td style="vertical-align:top;">:</td><td><div>&lt;open file &#x27;D:\\\\Applications\\\\web2py-master\\\\applications\\\\Frick\\\\sessions\\\\1be\\\\093\\\\127.0.0.1-dd355b60-e856-45c9-ae40-fb509e907da0&#x27;, mode &#x27;rb+&#x27; at 0x0000000009213930&gt;</div></td></tr><tr><td style="font-weight:bold;vertical-align:top;">session_filename</td><td style="vertical-align:top;">:</td><td><div>D:\\Applications\\web2py-master\\applications\\Frick\\sessions\\127.0.0.1-dd355b60-e856-45c9-ae40-fb509e907da0</div></td></tr><tr><td style="font-weight:bold;vertical-align:top;">session_hash</td><td style="vertical-align:top;">:</td><td><div>90f5d7524b75a44f1f4c965957f26ad7</div></td></tr><tr><td style="font-weight:bold;vertical-align:top;">session_id</td><td style="vertical-align:top;">:</td><td><div>127.0.0.1-dd355b60-e856-45c9-ae40-fb509e907da0</div></td></tr><tr><td style="font-weight:bold;vertical-align:top;">session_id_name</td><td style="vertical-align:top;">:</td><td><div>session_id_frick</div></td></tr><tr><td style="font-weight:bold;vertical-align:top;">session_locked</td><td style="vertical-align:top;">:</td><td><div>True</div></td></tr><tr><td style="font-weight:bold;vertical-align:top;">session_masterapp</td><td style="vertical-align:top;">:</td><td><div>Frick</div></td></tr><tr><td style="font-weight:bold;vertical-align:top;">session_new</td><td style="vertical-align:top;">:</td><td><div>False</div></td></tr><tr><td style="font-weight:bold;vertical-align:top;">session_storage_type</td><td style="vertical-align:top;">:</td><td><div>file</div></td></tr><tr><td style="font-weight:bold;vertical-align:top;">status</td><td style="vertical-align:top;">:</td><td><div>200</div></td></tr><tr><td style="font-weight:bold;vertical-align:top;">subtitle</td><td style="vertical-align:top;">:</td><td><div></div></td></tr><tr><td style="font-weight:bold;vertical-align:top;">title</td><td style="vertical-align:top;">:</td><td><div>Frick</div></td></tr><tr><td style="font-weight:bold;vertical-align:top;">view</td><td style="vertical-align:top;">:</td><td><div>default/lightbox.html</div></td></tr></table></div>'
tRp112
sS'locals'
p113
(dp114
S'Service'
p115
S"<class 'gluon.tools.Service'>"
p116
sS'OBJECT'
p117
S"<class 'gluon.html.OBJECT'>"
p118
sS'SQLDB'
p119
S"<class 'gluon.dal.base.DAL'>"
p120
sg105
S"<Storage {'_user_agent': <Storage {'os': <Storag...'version': '40.0.2214.93', 'name': 'Chrome'}>}>}>"
p121
sS'LINK'
p122
S"<class 'gluon.html.LINK'>"
p123
sS'BR'
p124
S"<class 'gluon.html.BR'>"
p125
sS'local_import'
p126
S'<function <lambda>>'
p127
sS'OPTGROUP'
p128
S"<class 'gluon.html.OPTGROUP'>"
p129
sS'__package__'
p130
S'None'
p131
sS'PRE'
p132
S"<class 'gluon.html.PRE'>"
p133
sS'IS_INT_IN_RANGE'
p134
S"<class 'gluon.validators.IS_INT_IN_RANGE'>"
p135
sS'IS_LOWER'
p136
S"<class 'gluon.validators.IS_LOWER'>"
p137
sS'IS_STRONG'
p138
S"<class 'gluon.validators.IS_STRONG'>"
p139
sS'cache'
p140
S'<gluon.cache.Cache object>'
p141
sS'IS_IN_DB'
p142
S"<class 'gluon.validators.IS_IN_DB'>"
p143
sS'TAG'
p144
S'<gluon.html.__TAG__ object>'
p145
sS'SQLField'
p146
S"<class 'gluon.dal.objects.Field'>"
p147
sS'mail'
p148
S'<gluon.tools.Mail object>'
p149
sS'BODY'
p150
S"<class 'gluon.html.BODY'>"
p151
sS'IS_DATE_IN_RANGE'
p152
S"<class 'gluon.validators.IS_DATE_IN_RANGE'>"
p153
sS'IFRAME'
p154
S"<class 'gluon.html.IFRAME'>"
p155
sS'URL'
p156
S'<function URL>'
p157
sS'__file__'
p158
S"r'D:\\Applications\\web2py-master\\applications\\Frick\\views\\default/lightbox.html'"
p159
sS'db'
p160
S'<DAL uri="sqlite://storage.sqlite">'
p161
sS'auth'
p162
S'<gluon.tools.Auth object>'
p163
sS'P'
S"<class 'gluon.html.P'>"
p164
sS'TFOOT'
p165
S"<class 'gluon.html.TFOOT'>"
p166
sS'XHTML'
p167
S"<class 'gluon.html.XHTML'>"
p168
sS'ON'
p169
S'True'
p170
sS'OL'
p171
S"<class 'gluon.html.OL'>"
p172
sS'TEXTAREA'
p173
S"<class 'gluon.html.TEXTAREA'>"
p174
sS'MENU'
p175
S"<class 'gluon.html.MENU'>"
p176
sS'IS_IMAGE'
p177
S"<class 'gluon.validators.IS_IMAGE'>"
p178
sS'EM'
p179
S"<class 'gluon.html.EM'>"
p180
sS'CODE'
p181
S"<class 'gluon.html.CODE'>"
p182
sS'HTTP'
p183
S"<class 'gluon.http.HTTP'>"
p184
sS'HR'
p185
S"<class 'gluon.html.HR'>"
p186
sS'IS_DATETIME'
p187
S"<class 'gluon.validators.IS_DATETIME'>"
p188
sS'STYLE'
p189
S"<class 'gluon.html.STYLE'>"
p190
sS'LABEL'
p191
S"<class 'gluon.html.LABEL'>"
p192
sS'CLEANUP'
p193
S"<class 'gluon.validators.CLEANUP'>"
p194
sS'plugins'
p195
S'<gluon.tools.PluginManager object>'
p196
sS'SELECT'
p197
S"<class 'gluon.html.SELECT'>"
p198
sS'use_janrain'
p199
S'<function use_janrain>'
p200
sS'CENTER'
p201
S"<class 'gluon.html.CENTER'>"
p202
sS'Auth'
p203
S"<class 'gluon.tools.Auth'>"
p204
sS'DEVELOPMENT_MENU'
p205
g170
sS'__builtins__'
p206
S"{'ArithmeticError': <type 'exceptions.ArithmeticError'>, 'AssertionError': <type 'exceptions.AssertionError'>, 'AttributeError': <type 'exceptions.AttributeError'>, 'BaseException': <type 'exceptions.BaseException'>, 'BufferError': <type 'exceptions.BufferError'>, 'BytesWarning': <type 'exceptions.BytesWarning'>, 'DeprecationWarning': <type 'exceptions.DeprecationWarning'>, 'EOFError': <type 'exceptions.EOFError'>, 'Ellipsis': Ellipsis, 'EnvironmentError': <type 'exceptions.EnvironmentError'>, ...}"
p207
sS'HTML'
p208
S"<class 'gluon.html.HTML'>"
p209
sS'SQLFORM'
p210
S"<class 'gluon.sqlhtml.SQLFORM'>"
p211
sS'LOAD'
p212
S'<function LOAD>'
p213
sS'redirect'
p214
S'<function redirect>'
p215
sS'FIELDSET'
p216
S"<class 'gluon.html.FIELDSET'>"
p217
sS'IS_EQUAL_TO'
p218
S"<class 'gluon.validators.IS_EQUAL_TO'>"
p219
sS'embed64'
p220
S'<function embed64>'
p221
sS'IS_LIST_OF'
p222
S"<class 'gluon.validators.IS_LIST_OF'>"
p223
sS'INPUT'
p224
S"<class 'gluon.html.INPUT'>"
p225
sS'EMBED'
p226
S"<class 'gluon.html.EMBED'>"
p227
sS'_'
S'<function _>'
p228
sS'H2'
p229
S"<class 'gluon.html.H2'>"
p230
sS'H3'
p231
S"<class 'gluon.html.H3'>"
p232
sS'BUTTON'
p233
S"<class 'gluon.html.BUTTON'>"
p234
sS'H1'
p235
S"<class 'gluon.html.H1'>"
p236
sS'H6'
p237
S"<class 'gluon.html.H6'>"
p238
sS'H4'
p239
S"<class 'gluon.html.H4'>"
p240
sS'H5'
p241
S"<class 'gluon.html.H5'>"
p242
sS'UL'
p243
S"<class 'gluon.html.UL'>"
p244
sS'IS_UPPER'
p245
S"<class 'gluon.validators.IS_UPPER'>"
p246
sS'xmlescape'
p247
S'<function xmlescape>'
p248
sS'IS_TIME'
p249
S"<class 'gluon.validators.IS_TIME'>"
p250
sS'OPTION'
p251
S"<class 'gluon.html.OPTION'>"
p252
sS'TITLE'
p253
S"<class 'gluon.html.TITLE'>"
p254
sS'CRYPT'
p255
S"<class 'gluon.validators.CRYPT'>"
p256
sS'IS_EMPTY_OR'
p257
S"<class 'gluon.validators.IS_EMPTY_OR'>"
p258
sS'MARKMIN'
p259
S"<class 'gluon.html.MARKMIN'>"
p260
sS'__name__'
p261
S"'__restricted__'"
p262
sS'STRONG'
p263
S"<class 'gluon.html.STRONG'>"
p264
sS'COL'
p265
S"<class 'gluon.html.COL'>"
p266
sS'service'
p267
S'<gluon.tools.Service object>'
p268
sS'SCRIPT'
p269
S"<class 'gluon.html.SCRIPT'>"
p270
sS'TABLE'
p271
S"<class 'gluon.html.TABLE'>"
p272
sS'IS_IPV4'
p273
S"<class 'gluon.validators.IS_IPV4'>"
p274
sS'IS_LENGTH'
p275
S"<class 'gluon.validators.IS_LENGTH'>"
p276
sS'IS_IPV6'
p277
S"<class 'gluon.validators.IS_IPV6'>"
p278
sS'XML'
p279
S"<class 'gluon.html.XML'>"
p280
sS'B'
S"<class 'gluon.html.B'>"
p281
sS'IMG'
p282
S"<class 'gluon.html.IMG'>"
p283
sS'SQLTABLE'
p284
S"<class 'gluon.sqlhtml.SQLTABLE'>"
p285
sS'IS_MATCH'
p286
S"<class 'gluon.validators.IS_MATCH'>"
p287
sS'IS_ALPHANUMERIC'
p288
S"<class 'gluon.validators.IS_ALPHANUMERIC'>"
p289
sS'SPAN'
p290
S"<class 'gluon.html.SPAN'>"
p291
sS'IS_JSON'
p292
S"<class 'gluon.validators.IS_JSON'>"
p293
sS'IS_IPADDRESS'
p294
S"<class 'gluon.validators.IS_IPADDRESS'>"
p295
sS'IS_SLUG'
p296
S"<class 'gluon.validators.IS_SLUG'>"
p297
sS'BEAUTIFY'
p298
S"<class 'gluon.html.BEAUTIFY'>"
p299
sS'META'
p300
S"<class 'gluon.html.META'>"
p301
sS'IS_DATE'
p302
S"<class 'gluon.validators.IS_DATE'>"
p303
sS'IS_EMAIL'
p304
S"<class 'gluon.validators.IS_EMAIL'>"
p305
sS'IS_NOT_EMPTY'
p306
S"<class 'gluon.validators.IS_NOT_EMPTY'>"
p307
sS'IS_FLOAT_IN_RANGE'
p308
S"<class 'gluon.validators.IS_FLOAT_IN_RANGE'>"
p309
sS'TBODY'
p310
S"<class 'gluon.html.TBODY'>"
p311
sS'CAT'
p312
S"<class 'gluon.html.CAT'>"
p313
sS'Field'
p314
S"<class 'gluon.dal.objects.Field'>"
p315
sS'IS_LIST_OF_EMAILS'
p316
S"<class 'gluon.validators.IS_LIST_OF_EMAILS'>"
p317
sS'DIV'
p318
S"<class 'gluon.html.DIV'>"
p319
sS'LEGEND'
p320
S"<class 'gluon.html.LEGEND'>"
p321
sS'COLGROUP'
p322
S"<class 'gluon.html.COLGROUP'>"
p323
sS'DAL'
p324
S"<class 'gluon.dal.base.DAL'>"
p325
sS'ASSIGNJS'
p326
S'<function ASSIGNJS>'
p327
sS'TR'
p328
S"<class 'gluon.html.TR'>"
p329
sS'LI'
p330
S"<class 'gluon.html.LI'>"
p331
sS'TH'
p332
S"<class 'gluon.html.TH'>"
p333
sS'TD'
p334
S"<class 'gluon.html.TD'>"
p335
sS'PluginManager'
p336
S"<class 'gluon.tools.PluginManager'>"
p337
sS'IS_URL'
p338
S"<class 'gluon.validators.IS_URL'>"
p339
sS'A'
S"<class 'gluon.html.A'>"
p340
sS'HEAD'
p341
S"<class 'gluon.html.HEAD'>"
p342
sS'IS_DATETIME_IN_RANGE'
p343
S"<class 'gluon.validators.IS_DATETIME_IN_RANGE'>"
p344
sS'FORM'
p345
S"<class 'gluon.html.FORM'>"
p346
sS'I'
S"<class 'gluon.html.I'>"
p347
sS'IS_NOT_IN_DB'
p348
S"<class 'gluon.validators.IS_NOT_IN_DB'>"
p349
sg111
S"<Storage {'body': <cStringIO.StringO object at 0...0000003E384A8>, 'view': 'default/lightbox.html'}>"
p350
sS'THEAD'
p351
S"<class 'gluon.html.THEAD'>"
p352
sS'ANY_OF'
p353
S"<class 'gluon.validators.ANY_OF'>"
p354
sS'IS_NULL_OR'
p355
S"<class 'gluon.validators.IS_EMPTY_OR'>"
p356
sg56
S"<Storage {'_vars': None, 'function': 'lightbox',...ications\\\\web2py-master\\\\applications\\\\Frick\\\\'}>"
p357
sS'IS_EXPR'
p358
S"<class 'gluon.validators.IS_EXPR'>"
p359
sS'T'
S'<gluon.languages.translator object>'
p360
sS'IS_IN_SET'
p361
S"<class 'gluon.validators.IS_IN_SET'>"
p362
sS'IS_UPLOAD_FILENAME'
p363
S"<class 'gluon.validators.IS_UPLOAD_FILENAME'>"
p364
sS'TT'
p365
S"<class 'gluon.html.TT'>"
p366
sS'IS_DECIMAL_IN_RANGE'
p367
S"<class 'gluon.validators.IS_DECIMAL_IN_RANGE'>"
p368
sssS'traceback'
p369
S'Traceback (most recent call last):\n  File "D:\\Applications\\web2py-master\\gluon\\restricted.py", line 224, in restricted\n    exec ccode in environment\n  File "D:\\Applications\\web2py-master\\applications\\Frick\\views\\default/lightbox.html", line 2, in <module>\n    <link rel="stylesheet" type="text/css" href="../static/css/font-awesome_min.css" media="screen" />\nNameError: name \'image_list\' is not defined\n'
p370
s.