(dp1
S'output'
p2
S"<class 'binascii.Error'> Incorrect padding"
p3
sS'layer'
p4
S'D:\\Applications\\web2py-master\\applications\\Frick\\controllers/default.py'
p5
sS'code'
p6
S'# -*- coding: utf-8 -*-\n# this file is released under public domain and you can use without limitations\n\n#########################################################################\n## This is a sample controller\n## - index is the default action of any application\n## - user is required for authentication and authorization\n## - download is for downloading files uploaded in the db (does streaming)\n## - api is an example of Hypermedia API support and access control\n#########################################################################\n\ndef upload():\n    import os\n    import urllib\n\n    imgData = request.vars[\'data\']\n    print imgData\n    myfile = os.path.join(request.folder, \'static/images\', \'imageToSave.jpg\')\n\n    fh = open(myfile, "wb+")\n    fh.write(urllib.unquote(imgData.decode(\'base64\')))\n    fh.close()\n\n    print \'done\'\n\n    return P()\n\ndef image_upload_test():\n    return dict()\n\ndef fabric_test():\n    return dict()\n\ndef kinetic_test():\n    return dict()\n\ndef lightbox():\n    return dict()\n\ndef index():\n    """\n    example action using the internationalization operator T and flash\n    rendered by views/default/index.html or views/generic.html\n\n    if you need a simple wiki simply replace the two lines below with:\n    return auth.wiki()\n    """\n    response.flash = T("Welcome to web2py!")\n    return dict(message=T(\'Hello World\'))\n\n\ndef user():\n    """\n    exposes:\n    http://..../[app]/default/user/login\n    http://..../[app]/default/user/logout\n    http://..../[app]/default/user/register\n    http://..../[app]/default/user/profile\n    http://..../[app]/default/user/retrieve_password\n    http://..../[app]/default/user/change_password\n    http://..../[app]/default/user/manage_users (requires membership in\n    use @auth.requires_login()\n        @auth.requires_membership(\'group name\')\n        @auth.requires_permission(\'read\',\'table name\',record_id)\n    to decorate functions that need access control\n    """\n    return dict(form=auth())\n\n\n@cache.action()\ndef download():\n    """\n    allows downloading of uploaded files\n    http://..../[app]/default/download/[filename]\n    """\n    return response.download(request, db)\n\n\ndef call():\n    """\n    exposes services. for example:\n    http://..../[app]/default/call/jsonrpc\n    decorate with @services.jsonrpc the functions to expose\n    supports xml, json, xmlrpc, jsonrpc, amfrpc, rss, csv\n    """\n    return service()\n\n\n@auth.requires_login() \ndef api():\n    """\n    this is example of API with access control\n    WEB2PY provides Hypermedia API (Collection+JSON) Experimental\n    """\n    from gluon.contrib.hypermedia import Collection\n    rules = {\n        \'<tablename>\': {\'GET\':{},\'POST\':{},\'PUT\':{},\'DELETE\':{}},\n        }\n    return Collection(db).process(request,response,rules)\n\nresponse._vars=response._caller(upload)\n'
p7
sS'snapshot'
p8
(dp9
S'exception'
p10
(dp11
S'__module__'
p12
S"'binascii'"
p13
sS'__getslice__'
p14
S"<method-wrapper '__getslice__' of Error object>"
p15
sS'__str__'
p16
S"<method-wrapper '__str__' of Error object>"
p17
sS'__reduce__'
p18
S'<built-in method __reduce__ of Error object>'
p19
sS'__dict__'
p20
S'{}'
p21
sS'__sizeof__'
p22
S'<built-in method __sizeof__ of Error object>'
p23
sS'__weakref__'
p24
S'None'
p25
sS'__init__'
p26
S"<method-wrapper '__init__' of Error object>"
p27
sS'__setattr__'
p28
S"<method-wrapper '__setattr__' of Error object>"
p29
sS'__reduce_ex__'
p30
S'<built-in method __reduce_ex__ of Error object>'
p31
sS'__new__'
p32
S'<built-in method __new__ of type object>'
p33
sS'__format__'
p34
S'<built-in method __format__ of Error object>'
p35
sS'__class__'
p36
S"<class 'binascii.Error'>"
p37
sS'__doc__'
p38
S'None'
p39
sS'__getitem__'
p40
S"<method-wrapper '__getitem__' of Error object>"
p41
sS'__setstate__'
p42
S'<built-in method __setstate__ of Error object>'
p43
sS'__getattribute__'
p44
S"<method-wrapper '__getattribute__' of Error object>"
p45
sS'args'
p46
S"('Incorrect padding',)"
p47
sS'__subclasshook__'
p48
S'<built-in method __subclasshook__ of type object>'
p49
sS'__unicode__'
p50
S'<built-in method __unicode__ of Error object>'
p51
sS'__delattr__'
p52
S"<method-wrapper '__delattr__' of Error object>"
p53
sS'__repr__'
p54
S"<method-wrapper '__repr__' of Error object>"
p55
sS'__hash__'
p56
S"<method-wrapper '__hash__' of Error object>"
p57
ssS'evalue'
p58
S'Incorrect padding'
p59
sS'request'
p60
cgluon.html
XML_unpickle
p61
(S's\xf6B\x01\x00<div><table><tr><td style="font-weight:bold;vertical-align:top;">ajax</td><td style="vertical-align:top;">:</td><td><div>True</div></td></tr><tr><td style="font-weight:bold;vertical-align:top;">application</td><td style="vertical-align:top;">:</td><td><div>Frick</div></td></tr><tr><td style="font-weight:bold;vertical-align:top;">args</td><td style="vertical-align:top;">:</td><td><div><table></table></div></td></tr><tr><td style="font-weight:bold;vertical-align:top;">cid</td><td style="vertical-align:top;">:</td><td><div>None</div></td></tr><tr><td style="font-weight:bold;vertical-align:top;">client</td><td style="vertical-align:top;">:</td><td><div>127.0.0.1</div></td></tr><tr><td style="font-weight:bold;vertical-align:top;">controller</td><td style="vertical-align:top;">:</td><td><div>default</div></td></tr><tr><td style="font-weight:bold;vertical-align:top;">cookies</td><td style="vertical-align:top;">:</td><td><div><table><tr><td style="font-weight:bold;vertical-align:top;">session_id_admin</td><td style="vertical-align:top;">:</td><td><div>127.0.0.1-24e587db-3441-4955-b294-4853a3d5bf45<table><tr><td style="font-weight:bold;vertical-align:top;">comment</td><td style="vertical-align:top;">:</td><td><div></div></td></tr><tr><td style="font-weight:bold;vertical-align:top;">domain</td><td style="vertical-align:top;">:</td><td><div></div></td></tr><tr><td style="font-weight:bold;vertical-align:top;">expires</td><td style="vertical-align:top;">:</td><td><div></div></td></tr><tr><td style="font-weight:bold;vertical-align:top;">httponly</td><td style="vertical-align:top;">:</td><td><div></div></td></tr><tr><td style="font-weight:bold;vertical-align:top;">max-age</td><td style="vertical-align:top;">:</td><td><div></div></td></tr><tr><td style="font-weight:bold;vertical-align:top;">path</td><td style="vertical-align:top;">:</td><td><div></div></td></tr><tr><td style="font-weight:bold;vertical-align:top;">secure</td><td style="vertical-align:top;">:</td><td><div></div></td></tr><tr><td style="font-weight:bold;vertical-align:top;">version</td><td style="vertical-align:top;">:</td><td><div></div></td></tr></table></div></td></tr><tr><td style="font-weight:bold;vertical-align:top;">session_id_examples</td><td style="vertical-align:top;">:</td><td><div>True<table><tr><td style="font-weight:bold;vertical-align:top;">comment</td><td style="vertical-align:top;">:</td><td><div></div></td></tr><tr><td style="font-weight:bold;vertical-align:top;">domain</td><td style="vertical-align:top;">:</td><td><div></div></td></tr><tr><td style="font-weight:bold;vertical-align:top;">expires</td><td style="vertical-align:top;">:</td><td><div></div></td></tr><tr><td style="font-weight:bold;vertical-align:top;">httponly</td><td style="vertical-align:top;">:</td><td><div></div></td></tr><tr><td style="font-weight:bold;vertical-align:top;">max-age</td><td style="vertical-align:top;">:</td><td><div></div></td></tr><tr><td style="font-weight:bold;vertical-align:top;">path</td><td style="vertical-align:top;">:</td><td><div></div></td></tr><tr><td style="font-weight:bold;vertical-align:top;">secure</td><td style="vertical-align:top;">:</td><td><div></div></td></tr><tr><td style="font-weight:bold;vertical-align:top;">version</td><td style="vertical-align:top;">:</td><td><div></div></td></tr></table></div></td></tr><tr><td style="font-weight:bold;vertical-align:top;">session_id_frick</td><td style="vertical-align:top;">:</td><td><div>127.0.0.1-dd355b60-e856-45c9-ae40-fb509e907da0<table><tr><td style="font-weight:bold;vertical-align:top;">comment</td><td style="vertical-align:top;">:</td><td><div></div></td></tr><tr><td style="font-weight:bold;vertical-align:top;">domain</td><td style="vertical-align:top;">:</td><td><div></div></td></tr><tr><td style="font-weight:bold;vertical-align:top;">expires</td><td style="vertical-align:top;">:</td><td><div></div></td></tr><tr><td style="font-weight:bold;vertical-align:top;">httponly</td><td style="vertical-align:top;">:</td><td><div></div></td></tr><tr><td style="font-weight:bold;vertical-align:top;">max-age</td><td style="vertical-align:top;">:</td><td><div></div></td></tr><tr><td style="font-weight:bold;vertical-align:top;">path</td><td style="vertical-align:top;">:</td><td><div></div></td></tr><tr><td style="font-weight:bold;vertical-align:top;">secure</td><td style="vertical-align:top;">:</td><td><div></div></td></tr><tr><td style="font-weight:bold;vertical-align:top;">version</td><td style="vertical-align:top;">:</td><td><div></div></td></tr></table></div></td></tr><tr><td style="font-weight:bold;vertical-align:top;">session_id_timesup</td><td style="vertical-align:top;">:</td><td><div>127.0.0.1-a288b4b6-344b-4bff-ad57-3672e4dfca2f<table><tr><td style="font-weight:bold;vertical-align:top;">comment</td><td style="vertical-align:top;">:</td><td><div></div></td></tr><tr><td style="font-weight:bold;vertical-align:top;">domain</td><td style="vertical-align:top;">:</td><td><div></div></td></tr><tr><td style="font-weight:bold;vertical-align:top;">expires</td><td style="vertical-align:top;">:</td><td><div></div></td></tr><tr><td style="font-weight:bold;vertical-align:top;">httponly</td><td style="vertical-align:top;">:</td><td><div></div></td></tr><tr><td style="font-weight:bold;vertical-align:top;">max-age</td><td style="vertical-align:top;">:</td><td><div></div></td></tr><tr><td style="font-weight:bold;vertical-align:top;">path</td><td style="vertical-align:top;">:</td><td><div></div></td></tr><tr><td style="font-weight:bold;vertical-align:top;">secure</td><td style="vertical-align:top;">:</td><td><div></div></td></tr><tr><td style="font-weight:bold;vertical-align:top;">version</td><td style="vertical-align:top;">:</td><td><div></div></td></tr></table></div></td></tr><tr><td style="font-weight:bold;vertical-align:top;">session_id_welcome</td><td style="vertical-align:top;">:</td><td><div>127.0.0.1-81734e71-5620-4b9f-9029-bc00c1994e00<table><tr><td style="font-weight:bold;vertical-align:top;">comment</td><td style="vertical-align:top;">:</td><td><div></div></td></tr><tr><td style="font-weight:bold;vertical-align:top;">domain</td><td style="vertical-align:top;">:</td><td><div></div></td></tr><tr><td style="font-weight:bold;vertical-align:top;">expires</td><td style="vertical-align:top;">:</td><td><div></div></td></tr><tr><td style="font-weight:bold;vertical-align:top;">httponly</td><td style="vertical-align:top;">:</td><td><div></div></td></tr><tr><td style="font-weight:bold;vertical-align:top;">max-age</td><td style="vertical-align:top;">:</td><td><div></div></td></tr><tr><td style="font-weight:bold;vertical-align:top;">path</td><td style="vertical-align:top;">:</td><td><div></div></td></tr><tr><td style="font-weight:bold;vertical-align:top;">secure</td><td style="vertical-align:top;">:</td><td><div></div></td></tr><tr><td style="font-weight:bold;vertical-align:top;">version</td><td style="vertical-align:top;">:</td><td><div></div></td></tr></table></div></td></tr></table></div></td></tr><tr><td style="font-weight:bold;vertical-align:top;">env</td><td style="vertical-align:top;">:</td><td><div><table><tr><td style="font-weight:bold;vertical-align:top;">CONTENT_LENGTH</td><td style="vertical-align:top;">:</td><td><div>0</div></td></tr><tr><td style="font-weight:bold;vertical-align:top;">HTTP_ACCEPT</td><td style="vertical-align:top;">:</td><td><div>*/*</div></td></tr><tr><td style="font-weight:bold;vertical-align:top;">HTTP_ACCEPT_ENCODING</td><td style="vertical-align:top;">:</td><td><div>gzip, deflate</div></td></tr><tr><td style="font-weight:bold;vertical-align:top;">HTTP_ACCEPT_LANGUAGE</td><td style="vertical-align:top;">:</td><td><div>pt-BR,pt;q=0.8,en-US;q=0.6,en;q=0.4</div></td></tr><tr><td style="font-weight:bold;vertical-align:top;">HTTP_CONNECTION</td><td style="vertical-align:top;">:</td><td><div>keep-alive</div></td></tr><tr><td style="font-weight:bold;vertical-align:top;">HTTP_CONTENT_LENGTH</td><td style="vertical-align:top;">:</td><td><div>0</div></td></tr><tr><td style="font-weight:bold;vertical-align:top;">HTTP_COOKIE</td><td style="vertical-align:top;">:</td><td><div>session_id_timesup=127.0.0.1-a288b4b6-344b-4bff-ad57-3672e4dfca2f; session_id_examples=True; session_id_welcome=127.0.0.1-81734e71-5620-4b9f-9029-bc00c1994e00; session_id_admin=127.0.0.1-24e587db-3441-4955-b294-4853a3d5bf45; session_id_frick=127.0.0.1-dd355b60-e856-45c9-ae40-fb509e907da0</div></td></tr><tr><td style="font-weight:bold;vertical-align:top;">HTTP_HOST</td><td style="vertical-align:top;">:</td><td><div>127.0.0.1:8000</div></td></tr><tr><td style="font-weight:bold;vertical-align:top;">HTTP_ORIGIN</td><td style="vertical-align:top;">:</td><td><div>http://127.0.0.1:8000</div></td></tr><tr><td style="font-weight:bold;vertical-align:top;">HTTP_REFERER</td><td style="vertical-align:top;">:</td><td><div>http://127.0.0.1:8000/Frick/default/image_upload_test</div></td></tr><tr><td style="font-weight:bold;vertical-align:top;">HTTP_USER_AGENT</td><td style="vertical-align:top;">:</td><td><div>Mozilla/5.0 (Windows NT 6.3; WOW64) AppleWebKit/537.36 (KHTML, like Gecko) Chrome/40.0.2214.93 Safari/537.36</div></td></tr><tr><td style="font-weight:bold;vertical-align:top;">HTTP_X_REQUESTED_WITH</td><td style="vertical-align:top;">:</td><td><div>XMLHttpRequest</div></td></tr><tr><td style="font-weight:bold;vertical-align:top;">PATH_INFO</td><td style="vertical-align:top;">:</td><td><div>/Frick/default/upload</div></td></tr><tr><td style="font-weight:bold;vertical-align:top;">QUERY_STRING</td><td style="vertical-align:top;">:</td><td><div>data=%22data%3Aimage%2Fpng%3Bbase64%2CiVBORw0KGgoAAAANSUhEUgAAAdUAAACfCAQAAAAFBIvCAAAAGXRFWHRTb2Z0d2FyZQBBZG9iZSBJbWFnZVJlYWR5ccllPAAAMaFJREFUeNrtfW1sXEW6pleytF7JurZEJHxuHHcn%2FqA7dn%2FRjsc4jW0w%2BZhrPGbZONmAsw4TPMtoMySIDCASCAxiLG1u5KDMDaMg0pMRF7jXEr6rMPHeH0wgWWA2cycdPgYUrFECAby%2Frh237p%2F9U%2Fu%2Bp7r6nG6fU%2FVWpzsxS71Hidv2c%2BrUqfM%2BVW%2B9x%2FVUVZUxY8aWnVl11rzF7GPe%2BWEm96PCI0MscNiaxBIUuD5r2roMF5%2B2%2BpZVg0xXCg8tc8ZuxzNWnXG8635Omv6j72%2FWGPxj6Mf4Sbt%2BTMUAGxWje%2F%2FgLQnG%2BvFIOCVf6O%2BdTbLCo3f2Qr%2FisjZFV7LVLMSicIa8GYKsncVZAv4PMiutKFmz67AC8ECg77Em4fNBuy%2BatgKkBo61M2tY44Fo4BvfjdgtGWGN76ofs9dBwAfU6Dw%2BUPiVjCdcwaObSss7KPh9hiMAm1F6hJb%2FlICHOjTD%2FSVtP25mom50SyoYwK%2By5mzLOUrJ2NoroUTe7kmn%2FVl1MVmRqKxaXpygKB5dWVlFrb5mQOydwB7i0J6ubFjh7npdh1XXdKUdEAmoj3W5Db4m4QE1LVCapO1XgH2D%2FkB08JF83SNM9ZhZf5I9%2B7Rz8J%2FI3IIfrMb5LHcjByu%2BUvGUKxQ%2FkcaLYdZ40f8JWOkw%2BA4iEBtlYSmddP1HFw%2FdKtShd1YQrncW61ZeqsIAcmYleEIEKAhx1ry8ND6aFh%2F8V9VHtiPdBPGObFcRVTzQgcz40RO7WEpW0ba3k2z3i6zBvlL9xO4ka%2F1EVnLTSa%2Buo%2BmkNzrwWDyPcz4lWOAxAp2%2BTrKORXoPGvm6d5aKpzt50u4573rAOfhP1CUXfpbjl36l4XWpysmXBCr6PbGqqsTnSRvReJFj4Xl9rvYfHFko%2FqPrb9YYEpV1CsKxTiSrXhisap%2F%2BC%2B6uu%2F8CZVz1iWlY7fGdnKxd2eM7WS2lcof2ANfjrBHRsoomvoE%2BuiF%2FpXpsCFnJYVZIVk7UsM85PYeLXYofPYf9H42YsMdtUq%2FMTd79Ho4bf2S7Gq9PVRxDC6lKG1VpVBV9cvFXGr6oVycSFZ%2FauXWquCnKooTpFvcfy0YiWVX%2BI%2FD8UOPXvp%2BE5%2Bom3JHt0IXP6MxS5U%2FAqovYd3l62%2BltAxkkq6q7T7LR3xT%2Bcz8gICtekEZU28Hq3d9JkEXhcfclufMmmZusgqh%2B5ww%2B7k3Vwcd9XbHh1JbiELt3Fu67QYbvmRs%2FCg5by%2Fr3TnRlZXhu7ijl5o6qlZ%2BrQrpkGp3PTVTZFKpwyqWabnH%2Fce5T6T%2Ba%2BNhiV5b7vOiQWG1XNvGNzngqewJWX%2BO7%2BPupIVbDas6n8HPju1ZMXmrvkcJ%2FhQ1Ya89RaqlV9P%2Bu0DacBdfrcx5rlPXMqW5%2B%2FVv8cfLHuP4t%2F6ZgDdhPFR8DGRmRoMk6R6Yc9MgU65TdN%2BKH32y1gyJruJn9x3%2BQ4%2B1zUvkZZYoyqq52HfJR1T3OUca8Ss9VrVhgoR1nngEaUXl%2BEwnEj%2B5Lg7fIsNx%2FsEWwXdT%2BI%2FD8UOO75zqXdKad2WS2XFS9L3XHH%2FH3m9r4nePnO%2F7Ys%2Fk6qErLYy0lJ6agZeeN%2FwwccYGT1QoEPwJqvCIveWiGhaw0jqw4olppFhqa8b%2FC%2BdTSMfJ8SlX%2Fp%2B918A8%2Bor5fxP%2FNTuvM3TtoeHe%2FThlVC9NKslFVNwNc6blq86mEHcyuYlSiOqOvmLPKAkLhPzbxCP6j62%2B9f0qwwjHOiiWI80kKVVktH0mD79lpNHuEPZ9yx6Q3iKpAKUiIS%2BdKK4ZmEpg0z1gZ%2FjhD12TDPydq2A6DMfTF%2FCCSlRZO0fLXPJsLM9o5%2FJ%2BS1UU8jHffrIaAVo2H93qXRX3g%2FV5fZeaqtAxwpeeqH3Trtr4z%2Boo5qyzjqus%2FuvixZ5JszVn3T9bAuDz2jM54qngC1XyGupJhFtiO%2BapVZZeFqvBG9bLT64cJ8zEW2juBk3sMRUbTMA9ggQX%2FxuNExVKRpvwrklXWFA5ZaUTl2d%2FRNOseP4pZYB18QoGHvnMyyNx5aXCbSf9x47s%2BV9Vv%2FQ2nBFacueFU%2BfxH298aemcj%2BAollosRz0QwI9ygM56qmBNbdKZpA5nYorobKAtV1yzEXc4xMjWQ2Xzu%2BE7FzK0BZnfYN3ezIOaa7cYL%2BL91Kw6%2BwooX2cJdqES1Yl3fwkumIJzZeGJX6gvVmzcdfOOV0JL6h1jjlZuVAa78e1Xd1scYiWP5mRhHlc9%2F9PFYhwhrwqz%2BfBOLKP8AaClJVcxhKRb%2FbHAgM5D5bBD67tR1UFX8XUSS8JcpqS8QN340V4kWuHQHNRnlvBhKfbH7Vr8H6fkKWPUwq6eGeuYgy1ZNqcPGOz6%2BR9SZ1V7of6CvfPi4Z0Y6zuSjamFa6bv2XhUpNzRDI2ruGXdyLNC1U%2FVs9fxHH4912DsxkOnMds9tPgd%2FPNEpvw99qvKrPL3r8FZaC3Vl26BE558ratV5h5brrxqrSjZWe2oL%2FbGSS62BPrSGWgP31eFR1ZYP7%2F23Jv5tWjqelgG%2BMe9VoU1C5X6i5fIfCh7GYRjtwIM65C%2FhnJc6S%2F9XnldPHdKgJoWtn6q6WQa0qq4yZuwG%2BY%2FxN2PGjBkzZsyYMWPGjBkzZsyYMWPGjBkzZsyYMWPGjBkzZsyYseVnpcgqGjNm7EYTNd1MEGK0kaUITo7BMiNUZj1D6RBgIRmWfxAO%2FFpHr1Vl6qOHh2WCxTJWwxWpzzycMW1rU6TJ5QMexTRpz5cqLpp7Tvw4WJlhBGp%2BBo7p79qA4m5Bmngs%2F5fXJWZFOsN86VmYRFb3agsKnuuswqLabGc2wig6q2t%2BjKX3TfZN4tc1P6Y0CV1XT7c%2Buvjor4tXpcgXo5daH5QVaUf8fJhRy0f8ShZltOdLW1lj1bW5cG1qRVxmL77HjjgmvE9R%2FzPNIBmL4pz2%2FS4zGXS56nQyJ70tVuA43%2FnhhXCDWLVTsHLHWSNKIav78VHwuOp%2FIIMipCx1YtdARq2zGvoUS986vnXcXu35aXmpqlsfXTwuQ3eviwCdg68rVx9cjSm%2F72K8qp0Ka69yLaEXBOWD7i5NogZ0pBfagNRNqJFxxsqEFfWPwLL%2B09uwHqe3jaYjJJ1eWCSe0SKcjaeJvbvxVmCVVIo0mRsZbeHSfvd3JVC1cDG3mnyFKyZVeNRZBYmKOKvFKsJysjg6o%2BzmrAAX9OBrN1HQg9KAVKq66wPik8r6uPCT1iQBH4jbAtCO9c7Gmb8KgVM%2BfqdTH%2Fyu9bWEasxz4a06Nd5xLnewJl9aLgT0WD2Vqon8Ot6IYncG62CUwRrSIF%2FgCGtkgnsnosow2zrYZMcO3HPU%2FiPwqxhxq40cvmkhMjI00%2FaV%2FG5xiVySOYQtkapLVRdU5HNTVb3sG3VWD28VlUA7vFWus3rbPl76oT28l06y2%2FaVj6ru%2BnC8vD4Cb%2FWFUMG%2FT4XH2hcKkKBASfsT6vpA4Buj1ydHk5BqNakbb68qVa4%2BFe7kXqsqkWWbd4sS5D7Nq8qnh9fhq6ASUbCGlDUMzYSvyueGPCTnI541tkrS2bvxqGrS9jZl7inw218N%2Fe75%2B2RdsdMygrCWQjrAh6pe8igqsjo4SsrB0VkV1VPprIau8tLvS92Xk%2BgMXVU0X8ZyaqQIe9z14TWS14fjYceRL%2B1585dWnQL%2FP5PsR790%2F%2BRHvwQRrA%2FU9YliQHhQVZ%2FkNwJPM6d8qumNqgkP%2F0mw8lE1zh7dUfyzR3fECSoZKDuzd6IZZrcwKtdQ8FVVjzwQWaTGlIj%2F8bZ2hrK8%2FmKhznTC9jV7MiHrLH2pir3s0qaWj5Q6KQe3zmoyT2uZzqoVE5InEAzWijBJLnFcKMQlb2pRH8sWpuLEltWH42E86rbr1I2LlGV43EFndIv7J6NbZDvXuNsHHvmrqvpgcshjZLvsG56mlmoIoIpQuUZV3SSUF1VlSr1JNtlU%2FLPJJlp9qqruehS%2F3vUolXr3DHZmdah6zyC%2Fm3sGfdu%2F353R5d2ebHiTzlX1GloX7%2Bisiscu11nlsp9izM7nFX8lu4aOEJeoD253wLdAkNfHqb%2B4Uzne1nzFunMl2j7LFl%2F1byOn%2FJ452FykRVV%2B%2FwUv3dqB93QSKHKdW71RtRSqWnUDmQP7T287sJ%2FL6B3bIU1yVbtd284wVNPqYwVwRMWR1T8ALqz12mMbzupQde2xzeesGEaAsoCZ%2B7I7D5y8HqqKTF%2B5qaqrs4r5U97TYn24Ui%2BMSl%2FL5w4rGd%2FUaKUyJBf1YbWjaZALrVXVx6m%2FuFM5Pr%2BN0IR9NxOqNnLKB6m1enX53u354H7lm700rf1vxKgKMUqcrYAU0Qq1jF6xzJjjwH6jGB6jaR4AQ964gTXA%2FzUUPFDv2r6dcu8vxEe%2BHv9Z62vgq7WUlzWibUsKgIsTMuWnqp7OqjUswt%2FeP%2FExJx8CD9Nqw5NRlPrAcBdU67668PbGCiq8837RST9I1ded8qspOrT6urVcqfn5%2B%2Bj4So%2BqOjPn0bQXVUcVbylY8MQuzMOLvLHqKgJ%2Faotc974YP33f44mOxUd%2BQXtZI8ZXERIvM6rq6ay2vyHKvOOP%2BD3f70P2ZwTFdQkq1P71dV%2F18N6uK6tRZeuDNcJ3rzr4ys9V6Ybqy0upij9VnFeLGzFqXMfGUzUvHTyrAXo3UF7W8PeqPBMsU6QUvxVqiFVVOPzcEKrq6Kx2LIoyh1%2FG74dfFt%2F7adrru4qu7qseXp%2BqpdYHE1IDGTUeXnak9k5sPkfXuV36Z4X%2B9Xf2vHMO%2BW4LelR1Tz2KPy8Pk9Pb%2FXrGsmM%2B2v4Gzp8YYrYjN9a7Y2eS5mu%2F%2Ft6bVJ1VlwJqkPepKi1UPRVd3fro43V1fa%2BjPt2o2k7QrQ3Z%2BA4dnVsNXeKUBzolL1%2BbDK7rU%2Fd6XTZELtRtroeDrMTsRDdVxowZM2bMmDFjxowZM2bMmDFjxowZM2bMmDFjxowZM2bMmDFjxowZM2bMmDFjBeb6o%2By0Pt5KEzRo61BQha4rq6dBmzsnnUdfrlhLodptTKuFmDVJLn0sd0ZGdafebSRTli2lRY0tO8OVCkMzSS0VYAfPQuvfUp3VeDG%2BiNKTVLFK3ZU7aM6KnDijC0TqWfiqSo2CGxdvO7TnwP7e2RBZwpo1jB9Nss3n5Eu3rMmwTX%2BdtTuaqr4lULqUjgBkOUvuaJT4gG7ntEQYW3qvxWdWaOgsrn8SpSdDAxm6CnAhXk3WKLNXSzKqWKU%2BVVGCxCXi9rBegxCbcDgJy73WXiOQzpbYhBUUKy5Al9TxZ%2BpD6nolyZQaBC1QcgsKloK4S79Y%2F4gKvIWCpm7TwRa3Pr271z2L1ZTe0ajwxWVTFnZSl9cVo5JMl3qq8r3WNSU5VVFTIKKhAlyMV5HVq9nKS9X2J9xomXApF8O0Ckq3lHKYaKHfDZ7unU0wykYMos4oZh1fpFI18QcvyS8vpwJH7%2BQrGPOqi%2FX%2Bo7EOtngJHDEi6L%2F%2Bs6hlU%2FD6CzWFkAqt1jpU9fZmf77wPSuKNxTJURXJp6cCXIyXk7WyVEWioaCnc%2FzgvKzvcsbf3lmuczj6G5UcJoZr7ez5%2B7b%2FraojcFPVijWdBE3gs1SqYquqRNyKW05noTVR0lxzxxrtADVQQkBb8QA4yaiRVjGqFKqipK%2BsJvamNFdzeR5bmse%2BCp930lWAvfEyslaWqrbu7DcFwcI3lIBq78TU0NTQ3olkXn5ZZrftQ6mrX4LAaDthLszH6iaGTa4KaZ0gHqcWFMJVlqq6Gha6AapXcHpzA2A%2B9y%2FWIqTUJ0%2FySZ324drbsueLHBt5BYmKm4AEFqw6G89CemT1w%2FuTtfJUjRf0n3HCo%2B%2BdPdC5iq1iBzqFgrAi%2FL26%2BW2rL74B0S0vUNwd91fBRFHzx7TNkOL%2FNcnu%2Fh83n6q6Ghb6qhf6AW3lAmD0F0j9pR0lQZ3a81a10iHJSLzUm9e%2FpRIXtfdACCJRo7YAeuPFHN6LfOvfklTWB7%2F%2BLe%2BzKk9V%2FV66%2B9KmNvy6qa37EiHI7otDd4QCa9F8aKImBUhkNY5MRVngeRKRjifZxqM3n6olvSrTPEMnQK1sAIyEG5liIXcATLtXVxooBCX40ttDEN%2FmjzQUr4MXg4Hm%2B6O5M1y7%2BhSTD4SzpPvQeOGt9Pq3vM8qjaq9s6e3UUa80qgahTzx6W2nt4UfjhK6g9DfgxxnP9%2BJzB7D%2B6ikuB8SXrEPKUSKfYZ731WOqtaYHXyNUQitm8%2FVPUMnQK18AIwZdXcATLvXglGwRa89kT%2F%2BeCvWeKUNIr7b%2Fpdn%2Fd3kUxHVC%2B9P1NKoauvk14gNLtTBZnFqW%2F3om1ngo8BHzaT9Q8Ps4eeEk20%2BB3vo%2FD0prRSwxlqvJdmdv6dQCbuMB%2FoqR9Xm3F3rB8CVyAAvlwC4OANMFwHUzQB3gbokPzh%2F%2FPFNuSlcxK%2BrEeSjELUYLyOqN1WHZmQ3Jza0EBtcEGgx7wp2AkmSGGaURUlymJjHPZB%2FvTH4d%2FbcXPJXS9YenlZaBcRIEBNL%2FJxn%2FlqJg82hnSQGbaTkeLeLydIgJQWcyw1%2F3Rlgan3UVHVUHIGB9lFKWq%2FoKkg%2BKlHdeGtMRlS%2FEMAf7955hpNV1RTFfwKhLYYpkcO0DmK%2BrmlBqNnzfHFgwb9GrQUbJ8GfH9QrCZjh5zReUbZ5C7R4i85IKZIe7iPEdF6tlT9AXV4ZYEHVUupTiqpxGahqZ55COsVyPGjMhsoZUhVuEYUC1cp61BaU31DOpsspEafyWxUrlW4L6tJN2VgB%2Fkghh6a0uX8w5o3nSQ%2F3gYmUcgacyw2v73NLz6HVpxRV41Iy8MtUCVj9ZwDGtNqzRf0TY8aMGTNmzJgxY8aMGTNmzJgxY8aMGTNmzJgxY8aMGTNmzJgxY8ZujsFqucCyqMe0eRbGjEmI2nhR%2FHG6FDdmTYPuyzRFFsxGn7Euw%2FqXMzQ8LucGaZThkjub4WXQkmmasrIxYyU5%2Bbrm7ksJ6coR7obNoDIUgX%2FNSo1DlOxuxtV32QT8D%2FgMRcKk%2BWOQRvmKgrSGoRNgjuA1djarJcu%2FXfgzuKpUq%2Fx57MRgjX6dmqhhorKyW1sW20ofqz5LDw%2F327dsPDLvLTS%2FWYrnS%2BJoZ1GwrvZM08R4nFand95Qtux%2B0ckDH00N9c6mvpCPkbgwbCAzmsaF1mHFiklUiBnIgGh3SqwTbbyorOjBqK2ZFHhJTaTVuaW4fJ2rVTd4y4ZTvbN%2BMp0C35UdP4prB1cxaw%2Bl%2FL0TQzNd2eM7Wa2VblPeAZe60pFBF%2B0fZbpYyll6%2BDgsJ4J4iTwNEms3SxV4kZ2D3sJd1vkks6V4viSOdhYF67RnmFQjd%2FuTO2%2FwH8n98sJACwjIeqFfVtDa923hbnyiHUjWte%2FLaB3l2FpnLV5UQW6rry2HDCmD4JavQB40nVsq1Dl4S%2BPFxovn1sGysmoFPsUaISwHAaxWdMs6Zfmw1A%2BXwnESbjglb2gUssrpU4QoMuhcUYfLXulhaWfp4fEa7bhGl7gzgLN2s1RVRBlWuGySUcjqhaesV6Vj3e0ZJZJV4OWqZY5xqTSf0p3Cui%2FtvlW%2BEA2lJIZf5p9RFSHC5LQ%2BvLX4EcnVdNd86SDXLMibAkc8FnTfQ%2FelwVvUeFRYbWZ87AO3PKnET9qhr01U2QJ8KHc6zNzjX1jaFQik0%2F5qN3ewtLN08bzlEyC7CkFY382mqnDZJIkaXnhaq1Kx7vakkdXB62qseJTuFObWYPAzFD0R4l6xD%2FEcf2xssSvLl2W7H1HiG9k4HGc4VguHkSv%2BOU3L7wHrL6OqwAeejwCWb%2BgxNHNunWIUmwyhHut0WNncjRfbc4r9yfzXdkXAbCtAXIySZbgcLOUst2PRruI8pyiGwmn1SFZZqnKXpVHDC08VN6Nh3e1JqZE%2BUSVk1SNqVdWGs3w7DEiv2FtiyMLB7rnOrMcjysrG4aEZHKvzAixX6XM3TlQZMQR%2B3dTpbRAmx7uyeycgXK2W45%2B%2BtwuSYu1CS0oSvm845SW3IQ%2BYhYAklapRl5uoz2o6qYcvplJYKSRTeaoW3rN%2FDOSNp%2BsQUrCFRFVnX0T7g%2Bi7psZKz1zR%2FeoStapq306uqNaWU1U7frc%2FtvdPibxomHNz%2FRdk4fXGo32TDjbOKFQNPBbN1V%2BeNMnv3BJiNfj11BbWIKNeTguq9vhOjCU4UWVqRrw3dG%2FnpO5NedvTqepgKWedW6eHL6bS0MzH99x8qrrvwT8G8sbTqUrB5uV13Eenuv3jTO%2FlnZWOF94vfz2jQ1TcoGhkymlmSLrU%2BGPHnoH55tniRzT2jCy87vjz4fWOsmCSRNWew3sneP2jykdfcC81%2BOKJQG0gK9ckalbUSKi8ijPVYQ8ihZAqxakcLOUsoftIv0rSta8PyLiFVF5ReaqibyZJw4kXnkpVGlZ3Vx%2Bn%2FcNM52VNuPh%2BA4%2Fx1zN0oqK9kxCPHLK7QanjNvTO2sFyzN13yaTKNpyNstW%2F7b8g0PKdXDBIwEwlTKoaWDXqkmOoocbnk0CgSEjDgwRai7p8Tlbcyys3V02rwx57%2FK2mqB4XY2ln6eKF4Cq8zuqkyLhVmqrcN2nDiReeGqvQsXqKiPpk9SAqzAw%2FFa9ndOTHWPWR7Tju9cydT6mwWM0I7rA67%2FRdMvzJjV3ZcF6wuCsr8sc%2BwfgTuEGU6NtW2ptF7Xvi5uELkwK0REIuyCaoHi%2FF0s7Sw%2BM1Np%2BDqUHjcnhZI9yVFvd54Sn0o2NLURR0yKrzsqbgfq0AzvC2%2F63q9YzHxSEg7Jk7tkN9HsqD7p0YyHRme%2BY2n4MkTqf8HFZzagv%2BuQF3dXCYWil6xYH9fPotlHcP7Gcrbh7eTVZqxi8fZCtVj72wlLMEyn7Nr8Tb6sUdsmmNl%2FM6X2l4mqMLd7XqaHGfg3I%2Bqemngy3NeKvrvKwput%2Fdt9p50MZSBD0hIOyW08gdBsOsOgX4DopKL2zMFMpJa4fUDsNWQLlu5d0VNxfvNDc14%2Bc4q1r12AtL0UrmKP6cVXiaevGNMXedKV7qoFyf1KOeBvZ6yKrzsqaoY4IGqKkyZszYjeh2qiuHNmbMmDFjxowZM2bMmDFjxowZM2bMmDFjxowZM2bMmDFjxowZM2bMmLEym65O7%2FcNb59Dlp1cnvWvuA8FoEYxnda02A2oVVr3SlbMmlyuNM3p9MYZTaf3%2B4YXZ3EZMXp7JrOdWZ36VAp%2FoyzwEUhYfkStC3XBXMGdZ%2FT3fXj%2BPr0rWbHAAuhkTt7Mrobvb5ETbA24WrRYK0al01sani9qw%2F8rU34yL2pW7vK5OPNKG7tyXq3b7%2Bges9SJXQMZSn1Kxe%2BdoOkq2488o%2B0yGtSwJqNK3aPrpWoUBU%2B19k1A4tGvBCMw4BPgpU%2FfW4n6U4nK97ewh4ZY00JeBg11evllhR6QXKfXwbudXYXvnf1kE67f%2FGQTLrClly%2BEoNR4WEUKomYndtHrT7tftKaTHYtIiiR76CUQO5VrGOd0jzfegd9tvIPFkXzy%2BgidZHthoQbeirVeo9QfhcebFqLajkWnhjUcyoum0UJyXVe3%2Bqw9qF%2B5mtHDU0G8E7uGZij4MAggIB6F2W8eVdc1xxdxfwssH%2BsfX1zXbP8CdXqdy6p1eh28%2B5Dju7K49g7Xb%2BKaPRxZaeX3zn58D6eICg8SMCusPVaM1fK19pTyhQCoSpfYqguz3S%2ByBpvejQ%2B91HpN1tBc9xh6QxTlTMP%2FscNbVfUROhd8awUqXjgitpBcV9maXA0uqO9YVGpYgTULzlNrvUYZi3VcHZQx54MgrZ6XcSeO9m2%2FEsSjL%2FEHUb%2BdlFXYlaMqq0HJvUROWteuP1%2BoGlsUI4wNy400%2Fjq9Dl4canzCFRY1nUwQykf5rYEMEnx8AKmtwsO4wkJXezZbdVFGqb%2B4A7UuMYq0JHFGyA7tObTHAodJSGcpXPeY1Q7N4J41sOofPkPDfyPHw3X2WAHcWqHpJBGfIyo8yAYZHgPfkKtzUsl2uTFUagQ%2BSri6bRgRPiqnq%2BPGI4miKK7pCsnpW0amaMRz16n1NfUc1SpqUcq8liaahugm1%2F0mUOqI47vniptMrtNbGt5RlOGqMSr81BCrhyCvmjukGp%2B0FY9YfdNJlc6wwFsFUYQ%2F3nEQqFG9Wg1I6B7z%2B%2BT33ZmV1Qfx1p5WtopFc0KSBLxD1Fo5vulKVEu2ywurogaX23R1gZ2KGXChq8u3uuoLL6lP7%2ByxHbQsLmuhEFVkiXODT0hNZx0RND0tKe8r2L%2Fo%2FZNoMsF%2FuU6vg3f3L3J8V9ZRbj23DkdJVfkBO5OYJ6oSjweEaiys1Bl28O5m8cez%2Fs8G7Zlwv2WPrKj6JBP14LrHVgxHVBxZ8XNCWh%2FET4cxcOdqOgT8mJuocvyxHY4ibqlUVVNDZ5ycGnILx3Zlp4akQezbmLEYmcKYRugSQyvVliOLW0qWuPJUZf0ndjkt1DMHCUTubajTu9R1%2FXV6Hbz7kOMTtpg%2Fzt0wu5UglG%2FL%2F%2FcJotLq4w5o1XgR8Kt1iVn10AwmkxC37qcdi7tflDU01z1mtdDAMDeH%2F2vXnFXVB%2FAwh7ddEEQ61PjmguSHHM9qsWR30C8XHiue2lCooUdVVvPkU47nPPmUXDKoHXWmu2F0tGMa1V4IelncUrLEhW1D1CvU0je0Arz%2BvCOL4wYsfPqBOr3FaRaZTq%2BDd%2Fe6KnwUXnPg3G3lfJRYPu6WktCqj1793TGBXJcYI4HB0825lAkmmKSPJad7LDLAuFWIqj6ID92OLghjMAGPNYF62COqCm%2FrZ4X2TuCj108rqalRyuyTrRCS7yCCrhCVA6IG8xHFLM7My5fFLSVLXPm00u5bU19g%2FXmKqyub%2BmL3rblfOYrrNJ3e0vAio1Wp8iuH586OYXCSfbJJrbjo6B5b800sQqqPLt5OdBHxnODHd6oFSJcE2wRqlOa8rIUH%2FKxFiQy675z6EoWeTNLNEt%2BADDBEWCipa4%2Fatae2uJQLhU5vF1Wn93uGF2dxdXoKUuged2vVp1J4JxDWdRpa4Fua8x7Z3jMnn6V63Xl5srjXkyWuPFWFjmhOW7mm6K71dHq%2Ff3gx4yBjl2P9q%2FVdRgvdr9VCqCJdAWFbSha3mKz6RNW9W2PGjBkzZsyYMWPGjBkzZsyYMWPGjBkzZsyYMWPGjBkzZsyYMWPGjBkzVgaDZXN7TCsYM1ZICw1dWVC6QQmPPvtzn72m%2F6DGlfrg%2FDNqWUZc2dpzuOL3PW0xqhwm1PqMVtkZlcJBHsm8P2tcK13GNnkOD%2B%2FvvpO%2BHbsxisPqZ3TdT0lXFzf2Ye9sfDEIq%2BytySDoqfXOxj4kXWUMnTfI2tidv1evSQi8FGU%2F3qbRAUwjleD%2FPh18x%2F%2B98wrtj9KtsQi0Dl3a0gpwsU01Ta0CVY1kSfqyoDYx7f3UoPtlHse8f1m9R%2FDw%2Fu67aO1PoG6H1DPn1a1SOl4QFddrXydZdXVxI%2Bzh53D1IwoQ4kq%2Fh5%2BLqB0y1nilmfHrbD7X%2F09qqq4F2cz1D9hjWZ2y6aaDrJ0hldqhK%2FBzWi%2F87eze1wtEkX3P4TKeoAZBHINZDW2ZlK4AiHASrmMPI8Y8J3i7z1NLeJafYOWmKldbLGV8kY824rdC%2F0gp47aka2qVyNlwmbtEvlUoMnF6eIeoOenV0skqdHFhmS8s6hEKDBIdWlu%2Frwkwzz797NOop9acFxXzf4yBhXhOKWbvxIP7w0Bx1aiHzdH%2BRlXVnb%2BXdxwYKLcXuGE7y4scE%2FAPPtJ8VIYXY3wC1HcHMqDG9xK1ZWlUXSrmIV9clVcFBBkPR3sKjw2n6F2BrF7Q2wWdBd2F38laNczU7bh0fJGPNs5vWUjIzsjr339h6b0Ov6zb%2Fv5PQL897auEuMQLbXleYWvkvxO6uPFF%2FC6%2BqNLFdfSL7nrgrgccXSPZpbmgaFd2%2FCjr7jrULJUd4zYeyfVBk%2BvfiUrnwo3vRmGcFuLeXAsI4oJ3qfhX1%2FSmZXg%2BdqE85%2Bs%2FfP2HttQmaV8WvnGGeusMz%2FCUyV0LZbJSX8Q3CKkRfCYgYxoqj2sV1oA0ZtTxyCxKIKtVl%2FjcGV%2FEaJP4XDEWQaSE7u7oGvmVv%2Fm1pfe6dVy3%2FS2JTFzPnF7n6n4S1FC5aHLDySp0cWEwr4NmVOriOg%2FfTVX5xTsWcdQ%2BtWV0i3W5TdnPWcPWQRE%2BhhiOgOGr%2FikuFCz5oDvJpu9DAtpiHXfbakUHKfjUV7DivsUfzw2FxkbTq0D%2BczSNomUUojZe5LVROW9JfTTIeDz7k9Uu1UI%2FopZC1cLfq%2BsjiJokkRXlSHjsBi54OSyVzGEhrlIIVOhwZxRkNbr%2FiaX3%2BnhCt%2F1lio6P%2FAKyLkw3A0ClKu%2BeChVBc2R1dHQDjwUeU%2BviVlVh4IsHUlV8lo9JCXgYR7YH34MkVK78w%2Bv98a2frJvCG%2BudFSNfnPlJRvdNwoz2X1j1QGb1b%2FfZwlGwSUTN%2Bn9Jsr5JP3z3JY6%2F96Uk23Icf%2BqPFwmlnrkZe5yfifTMRdTbTsS43Bt33pXzsnEYHXHpP9UD7eniRJ3YvX2tfQdvlS9g06OqQ1SxaQmdrPE8Uf1Se1x5WcfpxweK7xRGwZryURVKa2j7yvuc7a9eP1VzOtlFh%2F18HV3c1vxWA%2FIAFSlafEjdanNX9uHnAguRfOlIJ3981O5vkYL78j1kfIPfvGoggyPi%2BVTn%2Fw7aJZ9P4cgJVwj64SGgTiMex3fMMVtpf7xIKL3wU1a9%2Bdzmc6z6hZ%2FaWz3UyYiKgakY4zefs%2BeVMf8HyLO%2Bhf9UXUEgR9Tmj5vssv0zwJWlqkNUGNe7%2BWxSvd2VQ1Y5Uf0cXFYj3Jug8E4H3tOPavzLhzG1L%2B5zjmwAolKVz8kLJV5zMZOujm5V1WrGD6So%2BCy9eH3%2FhWaXtH9X9nxKdUvYGHf%2Bnq1wlO390OdTvbNtLPA8nII3Fg881gaP3%2F8KiIcEyLuv%2FxCdhdVbB8NSPCaUgKJw%2FQf3P7gf7wbJJ9vvLLDQmQWJ745czTsO7O%2FMBhbKNapiSCTkM8cjuBFRkzQDXOy44hn4X4HvpwcZ1z7IL6d5d%2BNPug2nckQNOakf7wSXF1lVRF3q4JgJzonD%2BqSiQHPK5ehd2cG%2FKydVYUx92%2FsMaIOacsxVsRXd3%2BcnN7o6urpzVXxrGylI%2BoBAp%2FThiPFo306%2BcR2eI3%2Fom8%2B1wTiM73mty63gWLLHz8WxI%2Fa2E3f92Qq0MSGV7Z2JxhdSJzfi52bIdePXkxu7sjCK%2Bb6%2F3XAWpCFXiLrDllcrTm3ZcLZco6qgmi2HaW9EJM8Ao%2BPyZ%2FrZoMuFJZ0l77zDkPhtyu1WgF2UzLGcmXLhdyqyylrefb%2F5eZsrE0y7Ck6%2B5G%2FndalqBdp9znh0h%2FSVk6KDKWxTn%2B90dXH1qNp4sfvS6W2gTgd5S8xVqgWgT25EYoNoZn3ra7w%2BzjYa3g%2BddcBmVO8l%2FpD4w8B7h%2FYUpiA88ZCuuAeS%2BtsObWoDvKRGzR9jwm1VvhvDr6vsCKH5Y9%2FyO7B3FYrtOJ6CQGRHuUZVQbX8Jo%2BpgiDJ5xrq0cs9bvBx1TVdaVC8iAj5fad6Duo6uWvivLaR3S28xMqTuwnOmmwqJ1Wbj3rjYXirV4W11A5G1mRaurh6VO2%2BBE5Sk3Mrkogjq%2Fn4HiB3A87AemdpOrewTUIHhMBx%2BL%2BedI36TdAN%2FGwjkKhe1idHmd%2BjjCpe2nTbe42c2NU9p3JF%2FbnqUpO6bp0OUfkkYWRKbMQwMiWfrlTail6KhNTdATzTfmenP9ZP82YqVdde88Y%2F%2FJw6rL1OooqelK4rm2%2B2W%2BBQvlXSc5J851GTu1InXedW8xotTClIDZ1Lv%2BSQng1tWcvVbrVcsb80fVmp61bTRL0LzmjJzfhS8Km66jtnogXVLan7JxCFM2HXoeZNqAxErWijfQcftDFjxowZM2bMmDFjxowZM2bMmDFjxowZM2bMmDFjxowZM2bMmDFjxoz9%2F2u4KsiaNO1gTOYkgWLZCarynNZV6uyy6zRcFwRkdJzX1iee%2F64%2BhRBIyIR81S6W3CtZKy%2BHR53neZrO8zLFT0NXdhn%2BH9PyuTN2Gx0sqydraWHlz8rYyAyt9KVXs7%2BJjBQLTzbfr0X0PUh2BQokTLBsuXhJvoED6LqNFxsvhph9BYoOXl3o2vjRBNN4jJlcMxzU6Azmya41r%2BcgsAakBv9R0VQdJkfnOUHUeV6O%2BLav%2Bv9p5JV9T9zzWzXescZ3caU0LHMMSkrX1kkubXlF1F7rEyWIzRaWJ1YI8UJ%2BvWSB16%2BJzg594yoW%2Fmr3rSqHCX6ZyHUDwY9U5a5rhvWhGVxmhkvQrMwqtq5ZXZvA853ZX3YnSRLZ1suo5rrhFOt%2F9umRqTbSWAaaCJdv%2F%2Bcnn2omdQbN7Mmnbv9nGAX66FQFXZ1v7QXyhNqM%2FsY5lA6rqfNcKr53VkjTlr98EMwJxT6M%2FjryNUUQRvgnSgQNv4nLHP3JnWDutsQDqSHr8kGmr5jYw%2BquIMkKxNnnZX7Ax187qszwETXn17HPiqka%2B4zguOmVi21fJv5P97%2FGGatWadrF3es8FX0iq%2BmdjbrwsGhXOdZYsTb20EsYH1DGow1HhSLrxq2jP7nzL8H3lOVPr17Y9wTraH9Dpkjh2NBM%2BxusY98TqxesacIIzFAYpapq3%2BP%2FKX37%2B9BRnVHVpo2JI3RNHqcInWe%2BsDn%2FDMbUeEd3l4Lvyh7ZfmQ7X%2BVKK98RCFLhu7K4PPz1Hx7rO7YDZQeijBLbDN7CNS9RAXOlLzW6sk5b8gPJIRO0YSuETolQz2Ir%2FNG6kulJxn20%2B9LgLYO3dF%2FicZMYVT2WTUvcyp7ZBlnH3A%2F%2BNW5vnuEqysfa7naX3na3Yo7KintduOKkfJQMfglaBY0YH6h7Lej%2Fj4j6vhK464GHXoj9m%2F9GVnZpz7UzkJlZYY3ZAtL8mPSrPR42boyt%2BGRTO5wtn820XjuwH3XqqqpeDf588L89%2BvNfyHcrsPoii474yuBpf90mNKHzbJMjtHeCk2nt%2B3J8VxaW9IecM1X4JNv9IkoH7H6RiudPQF1%2BB3QYG87iUkpWs6lNSL93EDrMppO87NVAP%2F8F%2Fj7rT6XL6T%2FodmRyurIfdFOnKiTtJgh%2BMT6J2hPAqB2r5NbdWn1eBfkFbs1MKPTGXcJmKqomniroUZ6SYd9JFMrH8NDqnYR8lIwz1Cqwl4v3T42i6j%2BNqqz655HB%2F3L%2FP7Yq8bazNIhHeXpb5GsvdORrl4JRA5bPz5a1z%2FZXQ79DEtlLumsv3fp4p7w113z55FPOKmAWks%2FPuc6zmFGxBtzCBOKmRRm%2BdxaUmxqceZIKbwuR2EurWQMfcVT4Yqr64xPfJNkPzvPPLS9QdKpzHVpO7ptLzhzbUb65Kj6nid2i7Ind5VWZQLvQjyJKUTuixM%2FCuSa8CopMeBfSOytU4wsvK7%2F02k%2Fd6LWfysMWPui7DwwGKFSym%2F4%2FxLdEXk4qqSfCcPbvt%2FaN%2FiRJpLb1V9aQ9RfUVxp%2B0ws9%2FOZKfNB%2FAdRfifNVVGXBxDfWsFARYP8OO0NZamvgPRzfc99VW6vlbd%2BZLbz6xjuwfTuzMnz3pY13FLaAHG%2BrHjEeg3CRMBUegsZ%2BPobwMNsf3%2FVtErf1CkBK73LHn%2FNj2bc0og7NnNgF4j9xf8UO91zVGVVV6UlWPzKF5Y9MqQSCHC%2FGK9Co6oS%2BPAwWvdyHXlT129sNpT90qWodXBLQSnKjuAPc0oDcf6eYQirBmLP%2Bjj1r%2F238qAy%2F%2FljvLG59Yb%2FeAams1ZK5SWH5oWTscNe39uNs8Wwfe1zv%2BjZ2OJSkUrWq6oWfuretstKymRLkuX9mpTG5Bd1GfNWPwjvkZfM9XETC3xoLLESlOs%2BIj6Jy8Zh4UZBU4peOkip8e262iVMKOX7gPfx905W%2ByUd%2BESVq%2BzpEhalqrTzT4Z6rOqOqak8ljP7wCu8kVDghav%2Fs09t2bdvlfCdPpInQl4fBwrninrF6XHZzSXZg%2F8iUE6jKqGqNtS2hXpskLYDOXqyg6EcMj1GvoXvbbZ%2BlvmCN0lT7miPbY4vWnq3juJ2ffG7iLt%2BqTo4k3vceTwvH1sT7yRGrmkpVVr%2Fh7Mq8m3QsHt%2Fpj9394mrGZ7Yt94X%2B%2B23vrYHwTla2o%2FMMhJ0Wesz%2BOs8cn8CXKNPOmSp8MVXVeJA9j1mx1msq%2FIP7%2BXSrDc4YTbP%2Bzwb3TsjlTt1EVc9oS5mr8iDYnlgo5YiEUnbxIX%2BxI0JfHgaXHKtjv3jvj4BSnae3jR%2FFuYmMqm%2B2jR9FNURnGj6QGT%2F6ZpukqQNYUYeoUenLlHxAiyLT1aFNkZej7Mh2ZUPXPvTSbdceTyRIGePeI11ZlLUMrkk93MGOKV%2FAHOvrYKmHg2v4CKmmKgqSOmHYfz4hE1iz58shm6pX1l7d9BqGd9KSG5y2bCfoPDv4dndnScDTdKQFHl%2FbBT9KaJSfYIOPI0U6ZmR4PaKWNld1PIOG0tIZ9swA29OL4mQyphFkaRm%2B1xafy4KMYyNoHMKsYzTt3%2FsABtQQPxs8tOfQHki6pOC7RllvtPtWcL9O8Z4OO4Tdt0pcEfvAIPa2ic%2F%2FGj6EYAsoiojpdLgze9s%2B4qaKweM7OxZxhrpGsYmHeN00kFljqwfjCIm1U78kd78uoL2FhZdk3dBhKmujq%2FN8o%2FBRFtUsv%2B0rePGSuf1zGV6PqEvfq9LmqvwZUF7c6e5ugE%2FWrgNMNW2tSdt3bD8tLsqy09vS90o4HwsWp0bUAcPqhdULFP1CLi06MoUBwMiU3SHQzurMBS9ByiNi1dtfbSXMScQonA%2BU4iR8vFBaW6%2F3paAxvUese17nGSMata7y8sRvPtcz1%2FVt6HcPPyfHY3iso7db%2FF6VOleVay%2BXHmAnPf%2Bw0H7Wpcbq%2BgZX0igV9WdRj7aqYmaPdjdVjnrJ6E3%2BM7WRqcYr2I2RS%2Bc6zxjRNHxH8R0QQxB0qvkEQcsrS%2FT%2Fyqj6FntAqcrQxpYLsVsw%2BDXt8P2x%2FwdFm3wBeW40TQAAAABJRU5ErkJggg%3D%3D%22</div></td></tr><tr><td style="font-weight:bold;vertical-align:top;">REMOTE_ADDR</td><td style="vertical-align:top;">:</td><td><div>127.0.0.1</div></td></tr><tr><td style="font-weight:bold;vertical-align:top;">REMOTE_PORT</td><td style="vertical-align:top;">:</td><td><div>52024</div></td></tr><tr><td style="font-weight:bold;vertical-align:top;">REQUEST_METHOD</td><td style="vertical-align:top;">:</td><td><div>POST</div></td></tr><tr><td style="font-weight:bold;vertical-align:top;">SCRIPT_NAME</td><td style="vertical-align:top;">:</td><td><div></div></td></tr><tr><td style="font-weight:bold;vertical-align:top;">SERVER_NAME</td><td style="vertical-align:top;">:</td><td><div>Apollo</div></td></tr><tr><td style="font-weight:bold;vertical-align:top;">SERVER_PORT</td><td style="vertical-align:top;">:</td><td><div>8000</div></td></tr><tr><td style="font-weight:bold;vertical-align:top;">SERVER_PROTOCOL</td><td style="vertical-align:top;">:</td><td><div>HTTP/1.1</div></td></tr><tr><td style="font-weight:bold;vertical-align:top;">SERVER_SOFTWARE</td><td style="vertical-align:top;">:</td><td><div>Rocket 1.2.6</div></td></tr><tr><td style="font-weight:bold;vertical-align:top;">app_folders</td><td style="vertical-align:top;">:</td><td><div>set([&#x27;D:\\\\Applications\\\\web2py-master\\\\applications\\\\admin\\\\&#x27;, &#x27;D:\\\\Applications\\\\web2py-master\\\\applications\\\\welcome\\\\&#x27;, &#x27;D:\\\\Applications\\\\web2py-master\\\\applications\\\\Frick\\\\&#x27;])</div></td></tr><tr><td style="font-weight:bold;vertical-align:top;">applications_parent</td><td style="vertical-align:top;">:</td><td><div>D:\\Applications\\web2py-master</div></td></tr><tr><td style="font-weight:bold;vertical-align:top;">cmd_args</td><td style="vertical-align:top;">:</td><td><div><table></table></div></td></tr><tr><td style="font-weight:bold;vertical-align:top;">cmd_options</td><td style="vertical-align:top;">:</td><td><div>&lt;Values at 0x364c608: {&#x27;verbose&#x27;: False, &#x27;ip&#x27;: &#x27;127.0.0.1&#x27;, &#x27;debuglevel&#x27;: 30, &#x27;with_scheduler&#x27;: False, &#x27;ips&#x27;: [&#x27;192.168.56.1&#x27;, &#x27;fe80::94a5:5e73:d9b5:ded3%3&#x27;, &#x27;172.16.25.120&#x27;, &#x27;fe80::2807:4e7f:d1b2:47d0%13&#x27;], &#x27;shutdown_timeout&#x27;: 5, &#x27;taskbar&#x27;: False, &#x27;with_coverage&#x27;: False, &#x27;scheduler_groups&#x27;: None, &#x27;port&#x27;: 8000, &#x27;maxthreads&#x27;: None, &#x27;softcron&#x27;: False, &#x27;server_name&#x27;: &#x27;Apollo&#x27;, &#x27;bpython&#x27;: False, &#x27;nogui&#x27;: False, &#x27;pid_filename&#x27;: &#x27;httpserver.pid&#x27;, &#x27;extcron&#x27;: False, &#x27;runcron&#x27;: False, &#x27;run_system_tests&#x27;: False, &#x27;test&#x27;: None, &#x27;folder&#x27;: &#x27;D:\\\\Applications\\\\web2py-master&#x27;, &#x27;config&#x27;: &#x27;&#x27;, &#x27;minthreads&#x27;: None, &#x27;shell&#x27;: None, &#x27;run&#x27;: &#x27;&#x27;, &#x27;log_filename&#x27;: &#x27;httpserver.log&#x27;, &#x27;profiler_dir&#x27;: None, &#x27;args&#x27;: [&#x27;&#x27;], &#x27;socket_timeout&#x27;: 5, &#x27;ssl_ca_certificate&#x27;: None, &#x27;scheduler&#x27;: None, &#x27;interfaces&#x27;: None, &#x27;ssl_private_key&#x27;: &#x27;&#x27;, &#x27;gae&#x27;: None, &#x27;password&#x27;: &#x27;&lt;ask&gt;&#x27;, &#x27;request_queue_size&#x27;: 5, &#x27;ssl_certificate&#x27;: &#x27;&#x27;, &#x27;cronjob&#x27;: False, &#x27;numthreads&#x27;: None, &#x27;quiet&#x27;: False, &#x27;import_models&#x27;: False, &#x27;timeout&#x27;: 10, &#x27;plain&#x27;: False, &#x27;nobanner&#x27;: False}&gt;</div></td></tr><tr><td style="font-weight:bold;vertical-align:top;">content_length</td><td style="vertical-align:top;">:</td><td><div>0</div></td></tr><tr><td style="font-weight:bold;vertical-align:top;">db_sessions</td><td style="vertical-align:top;">:</td><td><div>set([])</div></td></tr><tr><td style="font-weight:bold;vertical-align:top;">debugging</td><td style="vertical-align:top;">:</td><td><div>False</div></td></tr><tr><td style="font-weight:bold;vertical-align:top;">gluon_parent</td><td style="vertical-align:top;">:</td><td><div>D:\\Applications\\web2py-master</div></td></tr><tr><td style="font-weight:bold;vertical-align:top;">http_accept</td><td style="vertical-align:top;">:</td><td><div>*/*</div></td></tr><tr><td style="font-weight:bold;vertical-align:top;">http_accept_encoding</td><td style="vertical-align:top;">:</td><td><div>gzip, deflate</div></td></tr><tr><td style="font-weight:bold;vertical-align:top;">http_accept_language</td><td style="vertical-align:top;">:</td><td><div>pt-BR,pt;q=0.8,en-US;q=0.6,en;q=0.4</div></td></tr><tr><td style="font-weight:bold;vertical-align:top;">http_connection</td><td style="vertical-align:top;">:</td><td><div>keep-alive</div></td></tr><tr><td style="font-weight:bold;vertical-align:top;">http_content_length</td><td style="vertical-align:top;">:</td><td><div>0</div></td></tr><tr><td style="font-weight:bold;vertical-align:top;">http_cookie</td><td style="vertical-align:top;">:</td><td><div>session_id_timesup=127.0.0.1-a288b4b6-344b-4bff-ad57-3672e4dfca2f; session_id_examples=True; session_id_welcome=127.0.0.1-81734e71-5620-4b9f-9029-bc00c1994e00; session_id_admin=127.0.0.1-24e587db-3441-4955-b294-4853a3d5bf45; session_id_frick=127.0.0.1-dd355b60-e856-45c9-ae40-fb509e907da0</div></td></tr><tr><td style="font-weight:bold;vertical-align:top;">http_host</td><td style="vertical-align:top;">:</td><td><div>127.0.0.1:8000</div></td></tr><tr><td style="font-weight:bold;vertical-align:top;">http_origin</td><td style="vertical-align:top;">:</td><td><div>http://127.0.0.1:8000</div></td></tr><tr><td style="font-weight:bold;vertical-align:top;">http_referer</td><td style="vertical-align:top;">:</td><td><div>http://127.0.0.1:8000/Frick/default/image_upload_test</div></td></tr><tr><td style="font-weight:bold;vertical-align:top;">http_user_agent</td><td style="vertical-align:top;">:</td><td><div>Mozilla/5.0 (Windows NT 6.3; WOW64) AppleWebKit/537.36 (KHTML, like Gecko) Chrome/40.0.2214.93 Safari/537.36</div></td></tr><tr><td style="font-weight:bold;vertical-align:top;">http_x_requested_with</td><td style="vertical-align:top;">:</td><td><div>XMLHttpRequest</div></td></tr><tr><td style="font-weight:bold;vertical-align:top;">is_jython</td><td style="vertical-align:top;">:</td><td><div>False</div></td></tr><tr><td style="font-weight:bold;vertical-align:top;">is_pypy</td><td style="vertical-align:top;">:</td><td><div>False</div></td></tr><tr><td style="font-weight:bold;vertical-align:top;">is_source</td><td style="vertical-align:top;">:</td><td><div>True</div></td></tr><tr><td style="font-weight:bold;vertical-align:top;">local_hosts</td><td style="vertical-align:top;">:</td><td><div><table><tr><td><div>fe80::94a5:5e73:d9b5:ded3%3</div></td></tr><tr><td><div>::ffff:127.0.0.1</div></td></tr><tr><td><div>::1</div></td></tr><tr><td><div>172.16.25.120</div></td></tr><tr><td><div>192.168.56.1</div></td></tr><tr><td><div>Apollo</div></td></tr><tr><td><div>127.0.0.1</div></td></tr><tr><td><div>fe80::2807:4e7f:d1b2:47d0%13</div></td></tr></table></div></td></tr><tr><td style="font-weight:bold;vertical-align:top;">path_info</td><td style="vertical-align:top;">:</td><td><div>/Frick/default/upload</div></td></tr><tr><td style="font-weight:bold;vertical-align:top;">query_string</td><td style="vertical-align:top;">:</td><td><div>data=%22data%3Aimage%2Fpng%3Bbase64%2CiVBORw0KGgoAAAANSUhEUgAAAdUAAACfCAQAAAAFBIvCAAAAGXRFWHRTb2Z0d2FyZQBBZG9iZSBJbWFnZVJlYWR5ccllPAAAMaFJREFUeNrtfW1sXEW6pleytF7JurZEJHxuHHcn%2FqA7dn%2FRjsc4jW0w%2BZhrPGbZONmAsw4TPMtoMySIDCASCAxiLG1u5KDMDaMg0pMRF7jXEr6rMPHeH0wgWWA2cycdPgYUrFECAby%2Frh237p%2F9U%2Fu%2Bp7r6nG6fU%2FVWpzsxS71Hidv2c%2BrUqfM%2BVW%2B9x%2FVUVZUxY8aWnVl11rzF7GPe%2BWEm96PCI0MscNiaxBIUuD5r2roMF5%2B2%2BpZVg0xXCg8tc8ZuxzNWnXG8635Omv6j72%2FWGPxj6Mf4Sbt%2BTMUAGxWje%2F%2FgLQnG%2BvFIOCVf6O%2BdTbLCo3f2Qr%2FisjZFV7LVLMSicIa8GYKsncVZAv4PMiutKFmz67AC8ECg77Em4fNBuy%2BatgKkBo61M2tY44Fo4BvfjdgtGWGN76ofs9dBwAfU6Dw%2BUPiVjCdcwaObSss7KPh9hiMAm1F6hJb%2FlICHOjTD%2FSVtP25mom50SyoYwK%2By5mzLOUrJ2NoroUTe7kmn%2FVl1MVmRqKxaXpygKB5dWVlFrb5mQOydwB7i0J6ubFjh7npdh1XXdKUdEAmoj3W5Db4m4QE1LVCapO1XgH2D%2FkB08JF83SNM9ZhZf5I9%2B7Rz8J%2FI3IIfrMb5LHcjByu%2BUvGUKxQ%2FkcaLYdZ40f8JWOkw%2BA4iEBtlYSmddP1HFw%2FdKtShd1YQrncW61ZeqsIAcmYleEIEKAhx1ry8ND6aFh%2F8V9VHtiPdBPGObFcRVTzQgcz40RO7WEpW0ba3k2z3i6zBvlL9xO4ka%2F1EVnLTSa%2Buo%2BmkNzrwWDyPcz4lWOAxAp2%2BTrKORXoPGvm6d5aKpzt50u4573rAOfhP1CUXfpbjl36l4XWpysmXBCr6PbGqqsTnSRvReJFj4Xl9rvYfHFko%2FqPrb9YYEpV1CsKxTiSrXhisap%2F%2BC%2B6uu%2F8CZVz1iWlY7fGdnKxd2eM7WS2lcof2ANfjrBHRsoomvoE%2BuiF%2FpXpsCFnJYVZIVk7UsM85PYeLXYofPYf9H42YsMdtUq%2FMTd79Ho4bf2S7Gq9PVRxDC6lKG1VpVBV9cvFXGr6oVycSFZ%2FauXWquCnKooTpFvcfy0YiWVX%2BI%2FD8UOPXvp%2BE5%2Bom3JHt0IXP6MxS5U%2FAqovYd3l62%2BltAxkkq6q7T7LR3xT%2Bcz8gICtekEZU28Hq3d9JkEXhcfclufMmmZusgqh%2B5ww%2B7k3Vwcd9XbHh1JbiELt3Fu67QYbvmRs%2FCg5by%2Fr3TnRlZXhu7ijl5o6qlZ%2BrQrpkGp3PTVTZFKpwyqWabnH%2Fce5T6T%2Ba%2BNhiV5b7vOiQWG1XNvGNzngqewJWX%2BO7%2BPupIVbDas6n8HPju1ZMXmrvkcJ%2FhQ1Ya89RaqlV9P%2Bu0DacBdfrcx5rlPXMqW5%2B%2FVv8cfLHuP4t%2F6ZgDdhPFR8DGRmRoMk6R6Yc9MgU65TdN%2BKH32y1gyJruJn9x3%2BQ4%2B1zUvkZZYoyqq52HfJR1T3OUca8Ss9VrVhgoR1nngEaUXl%2BEwnEj%2B5Lg7fIsNx%2FsEWwXdT%2BI%2FD8UOO75zqXdKad2WS2XFS9L3XHH%2FH3m9r4nePnO%2F7Ys%2Fk6qErLYy0lJ6agZeeN%2FwwccYGT1QoEPwJqvCIveWiGhaw0jqw4olppFhqa8b%2FC%2BdTSMfJ8SlX%2Fp%2B918A8%2Bor5fxP%2FNTuvM3TtoeHe%2FThlVC9NKslFVNwNc6blq86mEHcyuYlSiOqOvmLPKAkLhPzbxCP6j62%2B9f0qwwjHOiiWI80kKVVktH0mD79lpNHuEPZ9yx6Q3iKpAKUiIS%2BdKK4ZmEpg0z1gZ%2FjhD12TDPydq2A6DMfTF%2FCCSlRZO0fLXPJsLM9o5%2FJ%2BS1UU8jHffrIaAVo2H93qXRX3g%2FV5fZeaqtAxwpeeqH3Trtr4z%2Boo5qyzjqus%2FuvixZ5JszVn3T9bAuDz2jM54qngC1XyGupJhFtiO%2BapVZZeFqvBG9bLT64cJ8zEW2juBk3sMRUbTMA9ggQX%2FxuNExVKRpvwrklXWFA5ZaUTl2d%2FRNOseP4pZYB18QoGHvnMyyNx5aXCbSf9x47s%2BV9Vv%2FQ2nBFacueFU%2BfxH298aemcj%2BAollosRz0QwI9ygM56qmBNbdKZpA5nYorobKAtV1yzEXc4xMjWQ2Xzu%2BE7FzK0BZnfYN3ezIOaa7cYL%2BL91Kw6%2BwooX2cJdqES1Yl3fwkumIJzZeGJX6gvVmzcdfOOV0JL6h1jjlZuVAa78e1Xd1scYiWP5mRhHlc9%2F9PFYhwhrwqz%2BfBOLKP8AaClJVcxhKRb%2FbHAgM5D5bBD67tR1UFX8XUSS8JcpqS8QN340V4kWuHQHNRnlvBhKfbH7Vr8H6fkKWPUwq6eGeuYgy1ZNqcPGOz6%2BR9SZ1V7of6CvfPi4Z0Y6zuSjamFa6bv2XhUpNzRDI2ruGXdyLNC1U%2FVs9fxHH4912DsxkOnMds9tPgd%2FPNEpvw99qvKrPL3r8FZaC3Vl26BE558ratV5h5brrxqrSjZWe2oL%2FbGSS62BPrSGWgP31eFR1ZYP7%2F23Jv5tWjqelgG%2BMe9VoU1C5X6i5fIfCh7GYRjtwIM65C%2FhnJc6S%2F9XnldPHdKgJoWtn6q6WQa0qq4yZuwG%2BY%2FxN2PGjBkzZsyYMWPGjBkzZsyYMWPGjBkzZsyYMWPGjBkzZsyYseVnpcgqGjNm7EYTNd1MEGK0kaUITo7BMiNUZj1D6RBgIRmWfxAO%2FFpHr1Vl6qOHh2WCxTJWwxWpzzycMW1rU6TJ5QMexTRpz5cqLpp7Tvw4WJlhBGp%2BBo7p79qA4m5Bmngs%2F5fXJWZFOsN86VmYRFb3agsKnuuswqLabGc2wig6q2t%2BjKX3TfZN4tc1P6Y0CV1XT7c%2Buvjor4tXpcgXo5daH5QVaUf8fJhRy0f8ShZltOdLW1lj1bW5cG1qRVxmL77HjjgmvE9R%2FzPNIBmL4pz2%2FS4zGXS56nQyJ70tVuA43%2FnhhXCDWLVTsHLHWSNKIav78VHwuOp%2FIIMipCx1YtdARq2zGvoUS986vnXcXu35aXmpqlsfXTwuQ3eviwCdg68rVx9cjSm%2F72K8qp0Ka69yLaEXBOWD7i5NogZ0pBfagNRNqJFxxsqEFfWPwLL%2B09uwHqe3jaYjJJ1eWCSe0SKcjaeJvbvxVmCVVIo0mRsZbeHSfvd3JVC1cDG3mnyFKyZVeNRZBYmKOKvFKsJysjg6o%2BzmrAAX9OBrN1HQg9KAVKq66wPik8r6uPCT1iQBH4jbAtCO9c7Gmb8KgVM%2BfqdTH%2Fyu9bWEasxz4a06Nd5xLnewJl9aLgT0WD2Vqon8Ot6IYncG62CUwRrSIF%2FgCGtkgnsnosow2zrYZMcO3HPU%2FiPwqxhxq40cvmkhMjI00%2FaV%2FG5xiVySOYQtkapLVRdU5HNTVb3sG3VWD28VlUA7vFWus3rbPl76oT28l06y2%2FaVj6ru%2BnC8vD4Cb%2FWFUMG%2FT4XH2hcKkKBASfsT6vpA4Buj1ydHk5BqNakbb68qVa4%2BFe7kXqsqkWWbd4sS5D7Nq8qnh9fhq6ASUbCGlDUMzYSvyueGPCTnI541tkrS2bvxqGrS9jZl7inw218N%2Fe75%2B2RdsdMygrCWQjrAh6pe8igqsjo4SsrB0VkV1VPprIau8tLvS92Xk%2BgMXVU0X8ZyaqQIe9z14TWS14fjYceRL%2B1585dWnQL%2FP5PsR790%2F%2BRHvwQRrA%2FU9YliQHhQVZ%2FkNwJPM6d8qumNqgkP%2F0mw8lE1zh7dUfyzR3fECSoZKDuzd6IZZrcwKtdQ8FVVjzwQWaTGlIj%2F8bZ2hrK8%2FmKhznTC9jV7MiHrLH2pir3s0qaWj5Q6KQe3zmoyT2uZzqoVE5InEAzWijBJLnFcKMQlb2pRH8sWpuLEltWH42E86rbr1I2LlGV43EFndIv7J6NbZDvXuNsHHvmrqvpgcshjZLvsG56mlmoIoIpQuUZV3SSUF1VlSr1JNtlU%2FLPJJlp9qqruehS%2F3vUolXr3DHZmdah6zyC%2Fm3sGfdu%2F353R5d2ebHiTzlX1GloX7%2Bisiscu11nlsp9izM7nFX8lu4aOEJeoD253wLdAkNfHqb%2B4Uzne1nzFunMl2j7LFl%2F1byOn%2FJ452FykRVV%2B%2FwUv3dqB93QSKHKdW71RtRSqWnUDmQP7T287sJ%2FL6B3bIU1yVbtd284wVNPqYwVwRMWR1T8ALqz12mMbzupQde2xzeesGEaAsoCZ%2B7I7D5y8HqqKTF%2B5qaqrs4r5U97TYn24Ui%2BMSl%2FL5w4rGd%2FUaKUyJBf1YbWjaZALrVXVx6m%2FuFM5Pr%2BN0IR9NxOqNnLKB6m1enX53u354H7lm700rf1vxKgKMUqcrYAU0Qq1jF6xzJjjwH6jGB6jaR4AQ964gTXA%2FzUUPFDv2r6dcu8vxEe%2BHv9Z62vgq7WUlzWibUsKgIsTMuWnqp7OqjUswt%2FeP%2FExJx8CD9Nqw5NRlPrAcBdU67668PbGCiq8837RST9I1ded8qspOrT6urVcqfn5%2B%2Bj4So%2BqOjPn0bQXVUcVbylY8MQuzMOLvLHqKgJ%2Faotc974YP33f44mOxUd%2BQXtZI8ZXERIvM6rq6ay2vyHKvOOP%2BD3f70P2ZwTFdQkq1P71dV%2F18N6uK6tRZeuDNcJ3rzr4ys9V6Ybqy0upij9VnFeLGzFqXMfGUzUvHTyrAXo3UF7W8PeqPBMsU6QUvxVqiFVVOPzcEKrq6Kx2LIoyh1%2FG74dfFt%2F7adrru4qu7qseXp%2BqpdYHE1IDGTUeXnak9k5sPkfXuV36Z4X%2B9Xf2vHMO%2BW4LelR1Tz2KPy8Pk9Pb%2FXrGsmM%2B2v4Gzp8YYrYjN9a7Y2eS5mu%2F%2Ft6bVJ1VlwJqkPepKi1UPRVd3fro43V1fa%2BjPt2o2k7QrQ3Z%2BA4dnVsNXeKUBzolL1%2BbDK7rU%2Fd6XTZELtRtroeDrMTsRDdVxowZM2bMmDFjxowZM2bMmDFjxowZM2bMmDFjxowZM2bMmDFjxowZM2bMmDFjBeb6o%2By0Pt5KEzRo61BQha4rq6dBmzsnnUdfrlhLodptTKuFmDVJLn0sd0ZGdafebSRTli2lRY0tO8OVCkMzSS0VYAfPQuvfUp3VeDG%2BiNKTVLFK3ZU7aM6KnDijC0TqWfiqSo2CGxdvO7TnwP7e2RBZwpo1jB9Nss3n5Eu3rMmwTX%2BdtTuaqr4lULqUjgBkOUvuaJT4gG7ntEQYW3qvxWdWaOgsrn8SpSdDAxm6CnAhXk3WKLNXSzKqWKU%2BVVGCxCXi9rBegxCbcDgJy73WXiOQzpbYhBUUKy5Al9TxZ%2BpD6nolyZQaBC1QcgsKloK4S79Y%2F4gKvIWCpm7TwRa3Pr271z2L1ZTe0ajwxWVTFnZSl9cVo5JMl3qq8r3WNSU5VVFTIKKhAlyMV5HVq9nKS9X2J9xomXApF8O0Ckq3lHKYaKHfDZ7unU0wykYMos4oZh1fpFI18QcvyS8vpwJH7%2BQrGPOqi%2FX%2Bo7EOtngJHDEi6L%2F%2Bs6hlU%2FD6CzWFkAqt1jpU9fZmf77wPSuKNxTJURXJp6cCXIyXk7WyVEWioaCnc%2FzgvKzvcsbf3lmuczj6G5UcJoZr7ez5%2B7b%2FraojcFPVijWdBE3gs1SqYquqRNyKW05noTVR0lxzxxrtADVQQkBb8QA4yaiRVjGqFKqipK%2BsJvamNFdzeR5bmse%2BCp930lWAvfEyslaWqrbu7DcFwcI3lIBq78TU0NTQ3olkXn5ZZrftQ6mrX4LAaDthLszH6iaGTa4KaZ0gHqcWFMJVlqq6Gha6AapXcHpzA2A%2B9y%2FWIqTUJ0%2FySZ324drbsueLHBt5BYmKm4AEFqw6G89CemT1w%2FuTtfJUjRf0n3HCo%2B%2BdPdC5iq1iBzqFgrAi%2FL26%2BW2rL74B0S0vUNwd91fBRFHzx7TNkOL%2FNcnu%2Fh83n6q6Ghb6qhf6AW3lAmD0F0j9pR0lQZ3a81a10iHJSLzUm9e%2FpRIXtfdACCJRo7YAeuPFHN6LfOvfklTWB7%2F%2BLe%2BzKk9V%2FV66%2B9KmNvy6qa37EiHI7otDd4QCa9F8aKImBUhkNY5MRVngeRKRjifZxqM3n6olvSrTPEMnQK1sAIyEG5liIXcATLtXVxooBCX40ttDEN%2FmjzQUr4MXg4Hm%2B6O5M1y7%2BhSTD4SzpPvQeOGt9Pq3vM8qjaq9s6e3UUa80qgahTzx6W2nt4UfjhK6g9DfgxxnP9%2BJzB7D%2B6ikuB8SXrEPKUSKfYZ731WOqtaYHXyNUQitm8%2FVPUMnQK18AIwZdXcATLvXglGwRa89kT%2F%2BeCvWeKUNIr7b%2Fpdn%2Fd3kUxHVC%2B9P1NKoauvk14gNLtTBZnFqW%2F3om1ngo8BHzaT9Q8Ps4eeEk20%2BB3vo%2FD0prRSwxlqvJdmdv6dQCbuMB%2FoqR9Xm3F3rB8CVyAAvlwC4OANMFwHUzQB3gbokPzh%2F%2FPFNuSlcxK%2BrEeSjELUYLyOqN1WHZmQ3Jza0EBtcEGgx7wp2AkmSGGaURUlymJjHPZB%2FvTH4d%2FbcXPJXS9YenlZaBcRIEBNL%2FJxn%2FlqJg82hnSQGbaTkeLeLydIgJQWcyw1%2F3Rlgan3UVHVUHIGB9lFKWq%2FoKkg%2BKlHdeGtMRlS%2FEMAf7955hpNV1RTFfwKhLYYpkcO0DmK%2BrmlBqNnzfHFgwb9GrQUbJ8GfH9QrCZjh5zReUbZ5C7R4i85IKZIe7iPEdF6tlT9AXV4ZYEHVUupTiqpxGahqZ55COsVyPGjMhsoZUhVuEYUC1cp61BaU31DOpsspEafyWxUrlW4L6tJN2VgB%2Fkghh6a0uX8w5o3nSQ%2F3gYmUcgacyw2v73NLz6HVpxRV41Iy8MtUCVj9ZwDGtNqzRf0TY8aMGTNmzJgxY8aMGTNmzJgxY8aMGTNmzJgxY8aMGTNmzJgxY8ZujsFqucCyqMe0eRbGjEmI2nhR%2FHG6FDdmTYPuyzRFFsxGn7Euw%2FqXMzQ8LucGaZThkjub4WXQkmmasrIxYyU5%2Bbrm7ksJ6coR7obNoDIUgX%2FNSo1DlOxuxtV32QT8D%2FgMRcKk%2BWOQRvmKgrSGoRNgjuA1djarJcu%2FXfgzuKpUq%2Fx57MRgjX6dmqhhorKyW1sW20ofqz5LDw%2F327dsPDLvLTS%2FWYrnS%2BJoZ1GwrvZM08R4nFand95Qtux%2B0ckDH00N9c6mvpCPkbgwbCAzmsaF1mHFiklUiBnIgGh3SqwTbbyorOjBqK2ZFHhJTaTVuaW4fJ2rVTd4y4ZTvbN%2BMp0C35UdP4prB1cxaw%2Bl%2FL0TQzNd2eM7Wa2VblPeAZe60pFBF%2B0fZbpYyll6%2BDgsJ4J4iTwNEms3SxV4kZ2D3sJd1vkks6V4viSOdhYF67RnmFQjd%2FuTO2%2FwH8n98sJACwjIeqFfVtDa923hbnyiHUjWte%2FLaB3l2FpnLV5UQW6rry2HDCmD4JavQB40nVsq1Dl4S%2BPFxovn1sGysmoFPsUaISwHAaxWdMs6Zfmw1A%2BXwnESbjglb2gUssrpU4QoMuhcUYfLXulhaWfp4fEa7bhGl7gzgLN2s1RVRBlWuGySUcjqhaesV6Vj3e0ZJZJV4OWqZY5xqTSf0p3Cui%2FtvlW%2BEA2lJIZf5p9RFSHC5LQ%2BvLX4EcnVdNd86SDXLMibAkc8FnTfQ%2FelwVvUeFRYbWZ87AO3PKnET9qhr01U2QJ8KHc6zNzjX1jaFQik0%2F5qN3ewtLN08bzlEyC7CkFY382mqnDZJIkaXnhaq1Kx7vakkdXB62qseJTuFObWYPAzFD0R4l6xD%2FEcf2xssSvLl2W7H1HiG9k4HGc4VguHkSv%2BOU3L7wHrL6OqwAeejwCWb%2BgxNHNunWIUmwyhHut0WNncjRfbc4r9yfzXdkXAbCtAXIySZbgcLOUst2PRruI8pyiGwmn1SFZZqnKXpVHDC08VN6Nh3e1JqZE%2BUSVk1SNqVdWGs3w7DEiv2FtiyMLB7rnOrMcjysrG4aEZHKvzAixX6XM3TlQZMQR%2B3dTpbRAmx7uyeycgXK2W45%2B%2BtwuSYu1CS0oSvm845SW3IQ%2BYhYAklapRl5uoz2o6qYcvplJYKSRTeaoW3rN%2FDOSNp%2BsQUrCFRFVnX0T7g%2Bi7psZKz1zR%2FeoStapq306uqNaWU1U7frc%2FtvdPibxomHNz%2FRdk4fXGo32TDjbOKFQNPBbN1V%2BeNMnv3BJiNfj11BbWIKNeTguq9vhOjCU4UWVqRrw3dG%2FnpO5NedvTqepgKWedW6eHL6bS0MzH99x8qrrvwT8G8sbTqUrB5uV13Eenuv3jTO%2FlnZWOF94vfz2jQ1TcoGhkymlmSLrU%2BGPHnoH55tniRzT2jCy87vjz4fWOsmCSRNWew3sneP2jykdfcC81%2BOKJQG0gK9ckalbUSKi8ijPVYQ8ihZAqxakcLOUsoftIv0rSta8PyLiFVF5ReaqibyZJw4kXnkpVGlZ3Vx%2Bn%2FcNM52VNuPh%2BA4%2Fx1zN0oqK9kxCPHLK7QanjNvTO2sFyzN13yaTKNpyNstW%2F7b8g0PKdXDBIwEwlTKoaWDXqkmOoocbnk0CgSEjDgwRai7p8Tlbcyys3V02rwx57%2FK2mqB4XY2ln6eKF4Cq8zuqkyLhVmqrcN2nDiReeGqvQsXqKiPpk9SAqzAw%2FFa9ndOTHWPWR7Tju9cydT6mwWM0I7rA67%2FRdMvzJjV3ZcF6wuCsr8sc%2BwfgTuEGU6NtW2ptF7Xvi5uELkwK0REIuyCaoHi%2FF0s7Sw%2BM1Np%2BDqUHjcnhZI9yVFvd54Sn0o2NLURR0yKrzsqbgfq0AzvC2%2F63q9YzHxSEg7Jk7tkN9HsqD7p0YyHRme%2BY2n4MkTqf8HFZzagv%2BuQF3dXCYWil6xYH9fPotlHcP7Gcrbh7eTVZqxi8fZCtVj72wlLMEyn7Nr8Tb6sUdsmmNl%2FM6X2l4mqMLd7XqaHGfg3I%2Bqemngy3NeKvrvKwput%2Fdt9p50MZSBD0hIOyW08gdBsOsOgX4DopKL2zMFMpJa4fUDsNWQLlu5d0VNxfvNDc14%2Bc4q1r12AtL0UrmKP6cVXiaevGNMXedKV7qoFyf1KOeBvZ6yKrzsqaoY4IGqKkyZszYjeh2qiuHNmbMmDFjxowZM2bMmDFjxowZM2bMmDFjxowZM2bMmDFjxowZM2bMmLEym65O7%2FcNb59Dlp1cnvWvuA8FoEYxnda02A2oVVr3SlbMmlyuNM3p9MYZTaf3%2B4YXZ3EZMXp7JrOdWZ36VAp%2FoyzwEUhYfkStC3XBXMGdZ%2FT3fXj%2BPr0rWbHAAuhkTt7Mrobvb5ETbA24WrRYK0al01sani9qw%2F8rU34yL2pW7vK5OPNKG7tyXq3b7%2Bges9SJXQMZSn1Kxe%2BdoOkq2488o%2B0yGtSwJqNK3aPrpWoUBU%2B19k1A4tGvBCMw4BPgpU%2FfW4n6U4nK97ewh4ZY00JeBg11evllhR6QXKfXwbudXYXvnf1kE67f%2FGQTLrClly%2BEoNR4WEUKomYndtHrT7tftKaTHYtIiiR76CUQO5VrGOd0jzfegd9tvIPFkXzy%2BgidZHthoQbeirVeo9QfhcebFqLajkWnhjUcyoum0UJyXVe3%2Bqw9qF%2B5mtHDU0G8E7uGZij4MAggIB6F2W8eVdc1xxdxfwssH%2BsfX1zXbP8CdXqdy6p1eh28%2B5Dju7K49g7Xb%2BKaPRxZaeX3zn58D6eICg8SMCusPVaM1fK19pTyhQCoSpfYqguz3S%2ByBpvejQ%2B91HpN1tBc9xh6QxTlTMP%2FscNbVfUROhd8awUqXjgitpBcV9maXA0uqO9YVGpYgTULzlNrvUYZi3VcHZQx54MgrZ6XcSeO9m2%2FEsSjL%2FEHUb%2BdlFXYlaMqq0HJvUROWteuP1%2BoGlsUI4wNy400%2Fjq9Dl4canzCFRY1nUwQykf5rYEMEnx8AKmtwsO4wkJXezZbdVFGqb%2B4A7UuMYq0JHFGyA7tObTHAodJSGcpXPeY1Q7N4J41sOofPkPDfyPHw3X2WAHcWqHpJBGfIyo8yAYZHgPfkKtzUsl2uTFUagQ%2BSri6bRgRPiqnq%2BPGI4miKK7pCsnpW0amaMRz16n1NfUc1SpqUcq8liaahugm1%2F0mUOqI47vniptMrtNbGt5RlOGqMSr81BCrhyCvmjukGp%2B0FY9YfdNJlc6wwFsFUYQ%2F3nEQqFG9Wg1I6B7z%2B%2BT33ZmV1Qfx1p5WtopFc0KSBLxD1Fo5vulKVEu2ywurogaX23R1gZ2KGXChq8u3uuoLL6lP7%2ByxHbQsLmuhEFVkiXODT0hNZx0RND0tKe8r2L%2Fo%2FZNoMsF%2FuU6vg3f3L3J8V9ZRbj23DkdJVfkBO5OYJ6oSjweEaiys1Bl28O5m8cez%2Fs8G7Zlwv2WPrKj6JBP14LrHVgxHVBxZ8XNCWh%2FET4cxcOdqOgT8mJuocvyxHY4ibqlUVVNDZ5ycGnILx3Zlp4akQezbmLEYmcKYRugSQyvVliOLW0qWuPJUZf0ndjkt1DMHCUTubajTu9R1%2FXV6Hbz7kOMTtpg%2Fzt0wu5UglG%2FL%2F%2FcJotLq4w5o1XgR8Kt1iVn10AwmkxC37qcdi7tflDU01z1mtdDAMDeH%2F2vXnFXVB%2FAwh7ddEEQ61PjmguSHHM9qsWR30C8XHiue2lCooUdVVvPkU47nPPmUXDKoHXWmu2F0tGMa1V4IelncUrLEhW1D1CvU0je0Arz%2BvCOL4wYsfPqBOr3FaRaZTq%2BDd%2Fe6KnwUXnPg3G3lfJRYPu6WktCqj1793TGBXJcYI4HB0825lAkmmKSPJad7LDLAuFWIqj6ID92OLghjMAGPNYF62COqCm%2FrZ4X2TuCj108rqalRyuyTrRCS7yCCrhCVA6IG8xHFLM7My5fFLSVLXPm00u5bU19g%2FXmKqyub%2BmL3rblfOYrrNJ3e0vAio1Wp8iuH586OYXCSfbJJrbjo6B5b800sQqqPLt5OdBHxnODHd6oFSJcE2wRqlOa8rIUH%2FKxFiQy675z6EoWeTNLNEt%2BADDBEWCipa4%2Fatae2uJQLhU5vF1Wn93uGF2dxdXoKUuged2vVp1J4JxDWdRpa4Fua8x7Z3jMnn6V63Xl5srjXkyWuPFWFjmhOW7mm6K71dHq%2Ff3gx4yBjl2P9q%2FVdRgvdr9VCqCJdAWFbSha3mKz6RNW9W2PGjBkzZsyYMWPGjBkzZsyYMWPGjBkzZsyYMWPGjBkzZsyYMWPGjBkzVgaDZXN7TCsYM1ZICw1dWVC6QQmPPvtzn72m%2F6DGlfrg%2FDNqWUZc2dpzuOL3PW0xqhwm1PqMVtkZlcJBHsm8P2tcK13GNnkOD%2B%2FvvpO%2BHbsxisPqZ3TdT0lXFzf2Ye9sfDEIq%2BytySDoqfXOxj4kXWUMnTfI2tidv1evSQi8FGU%2F3qbRAUwjleD%2FPh18x%2F%2B98wrtj9KtsQi0Dl3a0gpwsU01Ta0CVY1kSfqyoDYx7f3UoPtlHse8f1m9R%2FDw%2Fu67aO1PoG6H1DPn1a1SOl4QFddrXydZdXVxI%2Bzh53D1IwoQ4kq%2Fh5%2BLqB0y1nilmfHrbD7X%2F09qqq4F2cz1D9hjWZ2y6aaDrJ0hldqhK%2FBzWi%2F87eze1wtEkX3P4TKeoAZBHINZDW2ZlK4AiHASrmMPI8Y8J3i7z1NLeJafYOWmKldbLGV8kY824rdC%2F0gp47aka2qVyNlwmbtEvlUoMnF6eIeoOenV0skqdHFhmS8s6hEKDBIdWlu%2Frwkwzz797NOop9acFxXzf4yBhXhOKWbvxIP7w0Bx1aiHzdH%2BRlXVnb%2BXdxwYKLcXuGE7y4scE%2FAPPtJ8VIYXY3wC1HcHMqDG9xK1ZWlUXSrmIV9clVcFBBkPR3sKjw2n6F2BrF7Q2wWdBd2F38laNczU7bh0fJGPNs5vWUjIzsjr339h6b0Ov6zb%2Fv5PQL897auEuMQLbXleYWvkvxO6uPFF%2FC6%2BqNLFdfSL7nrgrgccXSPZpbmgaFd2%2FCjr7jrULJUd4zYeyfVBk%2BvfiUrnwo3vRmGcFuLeXAsI4oJ3qfhX1%2FSmZXg%2BdqE85%2Bs%2FfP2HttQmaV8WvnGGeusMz%2FCUyV0LZbJSX8Q3CKkRfCYgYxoqj2sV1oA0ZtTxyCxKIKtVl%2FjcGV%2FEaJP4XDEWQaSE7u7oGvmVv%2Fm1pfe6dVy3%2FS2JTFzPnF7n6n4S1FC5aHLDySp0cWEwr4NmVOriOg%2FfTVX5xTsWcdQ%2BtWV0i3W5TdnPWcPWQRE%2BhhiOgOGr%2FikuFCz5oDvJpu9DAtpiHXfbakUHKfjUV7DivsUfzw2FxkbTq0D%2BczSNomUUojZe5LVROW9JfTTIeDz7k9Uu1UI%2FopZC1cLfq%2BsjiJokkRXlSHjsBi54OSyVzGEhrlIIVOhwZxRkNbr%2FiaX3%2BnhCt%2F1lio6P%2FAKyLkw3A0ClKu%2BeChVBc2R1dHQDjwUeU%2BviVlVh4IsHUlV8lo9JCXgYR7YH34MkVK78w%2Bv98a2frJvCG%2BudFSNfnPlJRvdNwoz2X1j1QGb1b%2FfZwlGwSUTN%2Bn9Jsr5JP3z3JY6%2F96Uk23Icf%2BqPFwmlnrkZe5yfifTMRdTbTsS43Bt33pXzsnEYHXHpP9UD7eniRJ3YvX2tfQdvlS9g06OqQ1SxaQmdrPE8Uf1Se1x5WcfpxweK7xRGwZryURVKa2j7yvuc7a9eP1VzOtlFh%2F18HV3c1vxWA%2FIAFSlafEjdanNX9uHnAguRfOlIJ3981O5vkYL78j1kfIPfvGoggyPi%2BVTn%2Fw7aJZ9P4cgJVwj64SGgTiMex3fMMVtpf7xIKL3wU1a9%2Bdzmc6z6hZ%2FaWz3UyYiKgakY4zefs%2BeVMf8HyLO%2Bhf9UXUEgR9Tmj5vssv0zwJWlqkNUGNe7%2BWxSvd2VQ1Y5Uf0cXFYj3Jug8E4H3tOPavzLhzG1L%2B5zjmwAolKVz8kLJV5zMZOujm5V1WrGD6So%2BCy9eH3%2FhWaXtH9X9nxKdUvYGHf%2Bnq1wlO390OdTvbNtLPA8nII3Fg881gaP3%2F8KiIcEyLuv%2FxCdhdVbB8NSPCaUgKJw%2FQf3P7gf7wbJJ9vvLLDQmQWJ745czTsO7O%2FMBhbKNapiSCTkM8cjuBFRkzQDXOy44hn4X4HvpwcZ1z7IL6d5d%2BNPug2nckQNOakf7wSXF1lVRF3q4JgJzonD%2BqSiQHPK5ehd2cG%2FKydVYUx92%2FsMaIOacsxVsRXd3%2BcnN7o6urpzVXxrGylI%2BoBAp%2FThiPFo306%2BcR2eI3%2Fom8%2B1wTiM73mty63gWLLHz8WxI%2Fa2E3f92Qq0MSGV7Z2JxhdSJzfi52bIdePXkxu7sjCK%2Bb6%2F3XAWpCFXiLrDllcrTm3ZcLZco6qgmi2HaW9EJM8Ao%2BPyZ%2FrZoMuFJZ0l77zDkPhtyu1WgF2UzLGcmXLhdyqyylrefb%2F5eZsrE0y7Ck6%2B5G%2FndalqBdp9znh0h%2FSVk6KDKWxTn%2B90dXH1qNp4sfvS6W2gTgd5S8xVqgWgT25EYoNoZn3ra7w%2BzjYa3g%2BddcBmVO8l%2FpD4w8B7h%2FYUpiA88ZCuuAeS%2BtsObWoDvKRGzR9jwm1VvhvDr6vsCKH5Y9%2FyO7B3FYrtOJ6CQGRHuUZVQbX8Jo%2BpgiDJ5xrq0cs9bvBx1TVdaVC8iAj5fad6Duo6uWvivLaR3S28xMqTuwnOmmwqJ1Wbj3rjYXirV4W11A5G1mRaurh6VO2%2BBE5Sk3Mrkogjq%2Fn4HiB3A87AemdpOrewTUIHhMBx%2BL%2BedI36TdAN%2FGwjkKhe1idHmd%2BjjCpe2nTbe42c2NU9p3JF%2FbnqUpO6bp0OUfkkYWRKbMQwMiWfrlTail6KhNTdATzTfmenP9ZP82YqVdde88Y%2F%2FJw6rL1OooqelK4rm2%2B2W%2BBQvlXSc5J851GTu1InXedW8xotTClIDZ1Lv%2BSQng1tWcvVbrVcsb80fVmp61bTRL0LzmjJzfhS8Km66jtnogXVLan7JxCFM2HXoeZNqAxErWijfQcftDFjxowZM2bMmDFjxowZM2bMmDFjxowZM2bMmDFjxowZM2bMmDFjxoz9%2F2u4KsiaNO1gTOYkgWLZCarynNZV6uyy6zRcFwRkdJzX1iee%2F64%2BhRBIyIR81S6W3CtZKy%2BHR53neZrO8zLFT0NXdhn%2BH9PyuTN2Gx0sqydraWHlz8rYyAyt9KVXs7%2BJjBQLTzbfr0X0PUh2BQokTLBsuXhJvoED6LqNFxsvhph9BYoOXl3o2vjRBNN4jJlcMxzU6Azmya41r%2BcgsAakBv9R0VQdJkfnOUHUeV6O%2BLav%2Bv9p5JV9T9zzWzXescZ3caU0LHMMSkrX1kkubXlF1F7rEyWIzRaWJ1YI8UJ%2BvWSB16%2BJzg594yoW%2Fmr3rSqHCX6ZyHUDwY9U5a5rhvWhGVxmhkvQrMwqtq5ZXZvA853ZX3YnSRLZ1suo5rrhFOt%2F9umRqTbSWAaaCJdv%2F%2Bcnn2omdQbN7Mmnbv9nGAX66FQFXZ1v7QXyhNqM%2FsY5lA6rqfNcKr53VkjTlr98EMwJxT6M%2FjryNUUQRvgnSgQNv4nLHP3JnWDutsQDqSHr8kGmr5jYw%2BquIMkKxNnnZX7Ax187qszwETXn17HPiqka%2B4zguOmVi21fJv5P97%2FGGatWadrF3es8FX0iq%2BmdjbrwsGhXOdZYsTb20EsYH1DGow1HhSLrxq2jP7nzL8H3lOVPr17Y9wTraH9Dpkjh2NBM%2BxusY98TqxesacIIzFAYpapq3%2BP%2FKX37%2B9BRnVHVpo2JI3RNHqcInWe%2BsDn%2FDMbUeEd3l4Lvyh7ZfmQ7X%2BVKK98RCFLhu7K4PPz1Hx7rO7YDZQeijBLbDN7CNS9RAXOlLzW6sk5b8gPJIRO0YSuETolQz2Ir%2FNG6kulJxn20%2B9LgLYO3dF%2FicZMYVT2WTUvcyp7ZBlnH3A%2F%2BNW5vnuEqysfa7naX3na3Yo7KintduOKkfJQMfglaBY0YH6h7Lej%2Fj4j6vhK464GHXoj9m%2F9GVnZpz7UzkJlZYY3ZAtL8mPSrPR42boyt%2BGRTO5wtn820XjuwH3XqqqpeDf588L89%2BvNfyHcrsPoii474yuBpf90mNKHzbJMjtHeCk2nt%2B3J8VxaW9IecM1X4JNv9IkoH7H6RiudPQF1%2BB3QYG87iUkpWs6lNSL93EDrMppO87NVAP%2F8F%2Fj7rT6XL6T%2FodmRyurIfdFOnKiTtJgh%2BMT6J2hPAqB2r5NbdWn1eBfkFbs1MKPTGXcJmKqomniroUZ6SYd9JFMrH8NDqnYR8lIwz1Cqwl4v3T42i6j%2BNqqz655HB%2F3L%2FP7Yq8bazNIhHeXpb5GsvdORrl4JRA5bPz5a1z%2FZXQ79DEtlLumsv3fp4p7w113z55FPOKmAWks%2FPuc6zmFGxBtzCBOKmRRm%2BdxaUmxqceZIKbwuR2EurWQMfcVT4Yqr64xPfJNkPzvPPLS9QdKpzHVpO7ptLzhzbUb65Kj6nid2i7Ind5VWZQLvQjyJKUTuixM%2FCuSa8CopMeBfSOytU4wsvK7%2F02k%2Fd6LWfysMWPui7DwwGKFSym%2F4%2FxLdEXk4qqSfCcPbvt%2FaN%2FiRJpLb1V9aQ9RfUVxp%2B0ws9%2FOZKfNB%2FAdRfifNVVGXBxDfWsFARYP8OO0NZamvgPRzfc99VW6vlbd%2BZLbz6xjuwfTuzMnz3pY13FLaAHG%2BrHjEeg3CRMBUegsZ%2BPobwMNsf3%2FVtErf1CkBK73LHn%2FNj2bc0og7NnNgF4j9xf8UO91zVGVVV6UlWPzKF5Y9MqQSCHC%2FGK9Co6oS%2BPAwWvdyHXlT129sNpT90qWodXBLQSnKjuAPc0oDcf6eYQirBmLP%2Bjj1r%2F238qAy%2F%2FljvLG59Yb%2FeAams1ZK5SWH5oWTscNe39uNs8Wwfe1zv%2BjZ2OJSkUrWq6oWfuretstKymRLkuX9mpTG5Bd1GfNWPwjvkZfM9XETC3xoLLESlOs%2BIj6Jy8Zh4UZBU4peOkip8e262iVMKOX7gPfx905W%2ByUd%2BESVq%2BzpEhalqrTzT4Z6rOqOqak8ljP7wCu8kVDghav%2Fs09t2bdvlfCdPpInQl4fBwrninrF6XHZzSXZg%2F8iUE6jKqGqNtS2hXpskLYDOXqyg6EcMj1GvoXvbbZ%2BlvmCN0lT7miPbY4vWnq3juJ2ffG7iLt%2BqTo4k3vceTwvH1sT7yRGrmkpVVr%2Fh7Mq8m3QsHt%2Fpj9394mrGZ7Yt94X%2B%2B23vrYHwTla2o%2FMMhJ0Wesz%2BOs8cn8CXKNPOmSp8MVXVeJA9j1mx1msq%2FIP7%2BXSrDc4YTbP%2Bzwb3TsjlTt1EVc9oS5mr8iDYnlgo5YiEUnbxIX%2BxI0JfHgaXHKtjv3jvj4BSnae3jR%2FFuYmMqm%2B2jR9FNURnGj6QGT%2F6ZpukqQNYUYeoUenLlHxAiyLT1aFNkZej7Mh2ZUPXPvTSbdceTyRIGePeI11ZlLUMrkk93MGOKV%2FAHOvrYKmHg2v4CKmmKgqSOmHYfz4hE1iz58shm6pX1l7d9BqGd9KSG5y2bCfoPDv4dndnScDTdKQFHl%2FbBT9KaJSfYIOPI0U6ZmR4PaKWNld1PIOG0tIZ9swA29OL4mQyphFkaRm%2B1xafy4KMYyNoHMKsYzTt3%2FsABtQQPxs8tOfQHki6pOC7RllvtPtWcL9O8Z4OO4Tdt0pcEfvAIPa2ic%2F%2FGj6EYAsoiojpdLgze9s%2B4qaKweM7OxZxhrpGsYmHeN00kFljqwfjCIm1U78kd78uoL2FhZdk3dBhKmujq%2FN8o%2FBRFtUsv%2B0rePGSuf1zGV6PqEvfq9LmqvwZUF7c6e5ugE%2FWrgNMNW2tSdt3bD8tLsqy09vS90o4HwsWp0bUAcPqhdULFP1CLi06MoUBwMiU3SHQzurMBS9ByiNi1dtfbSXMScQonA%2BU4iR8vFBaW6%2F3paAxvUese17nGSMata7y8sRvPtcz1%2FVt6HcPPyfHY3iso7db%2FF6VOleVay%2BXHmAnPf%2Bw0H7Wpcbq%2BgZX0igV9WdRj7aqYmaPdjdVjnrJ6E3%2BM7WRqcYr2I2RS%2Bc6zxjRNHxH8R0QQxB0qvkEQcsrS%2FT%2Fyqj6FntAqcrQxpYLsVsw%2BDXt8P2x%2FwdFm3wBeW40TQAAAABJRU5ErkJggg%3D%3D%22</div></td></tr><tr><td style="font-weight:bold;vertical-align:top;">remote_addr</td><td style="vertical-align:top;">:</td><td><div>127.0.0.1</div></td></tr><tr><td style="font-weight:bold;vertical-align:top;">remote_port</td><td style="vertical-align:top;">:</td><td><div>52024</div></td></tr><tr><td style="font-weight:bold;vertical-align:top;">request_method</td><td style="vertical-align:top;">:</td><td><div>POST</div></td></tr><tr><td style="font-weight:bold;vertical-align:top;">request_uri</td><td style="vertical-align:top;">:</td><td><div>/Frick/default/upload?data=%22data%3Aimage%2Fpng%3Bbase64%2CiVBORw0KGgoAAAANSUhEUgAAAdUAAACfCAQAAAAFBIvCAAAAGXRFWHRTb2Z0d2FyZQBBZG9iZSBJbWFnZVJlYWR5ccllPAAAMaFJREFUeNrtfW1sXEW6pleytF7JurZEJHxuHHcn%2FqA7dn%2FRjsc4jW0w%2BZhrPGbZONmAsw4TPMtoMySIDCASCAxiLG1u5KDMDaMg0pMRF7jXEr6rMPHeH0wgWWA2cycdPgYUrFECAby%2Frh237p%2F9U%2Fu%2Bp7r6nG6fU%2FVWpzsxS71Hidv2c%2BrUqfM%2BVW%2B9x%2FVUVZUxY8aWnVl11rzF7GPe%2BWEm96PCI0MscNiaxBIUuD5r2roMF5%2B2%2BpZVg0xXCg8tc8ZuxzNWnXG8635Omv6j72%2FWGPxj6Mf4Sbt%2BTMUAGxWje%2F%2FgLQnG%2BvFIOCVf6O%2BdTbLCo3f2Qr%2FisjZFV7LVLMSicIa8GYKsncVZAv4PMiutKFmz67AC8ECg77Em4fNBuy%2BatgKkBo61M2tY44Fo4BvfjdgtGWGN76ofs9dBwAfU6Dw%2BUPiVjCdcwaObSss7KPh9hiMAm1F6hJb%2FlICHOjTD%2FSVtP25mom50SyoYwK%2By5mzLOUrJ2NoroUTe7kmn%2FVl1MVmRqKxaXpygKB5dWVlFrb5mQOydwB7i0J6ubFjh7npdh1XXdKUdEAmoj3W5Db4m4QE1LVCapO1XgH2D%2FkB08JF83SNM9ZhZf5I9%2B7Rz8J%2FI3IIfrMb5LHcjByu%2BUvGUKxQ%2FkcaLYdZ40f8JWOkw%2BA4iEBtlYSmddP1HFw%2FdKtShd1YQrncW61ZeqsIAcmYleEIEKAhx1ry8ND6aFh%2F8V9VHtiPdBPGObFcRVTzQgcz40RO7WEpW0ba3k2z3i6zBvlL9xO4ka%2F1EVnLTSa%2Buo%2BmkNzrwWDyPcz4lWOAxAp2%2BTrKORXoPGvm6d5aKpzt50u4573rAOfhP1CUXfpbjl36l4XWpysmXBCr6PbGqqsTnSRvReJFj4Xl9rvYfHFko%2FqPrb9YYEpV1CsKxTiSrXhisap%2F%2BC%2B6uu%2F8CZVz1iWlY7fGdnKxd2eM7WS2lcof2ANfjrBHRsoomvoE%2BuiF%2FpXpsCFnJYVZIVk7UsM85PYeLXYofPYf9H42YsMdtUq%2FMTd79Ho4bf2S7Gq9PVRxDC6lKG1VpVBV9cvFXGr6oVycSFZ%2FauXWquCnKooTpFvcfy0YiWVX%2BI%2FD8UOPXvp%2BE5%2Bom3JHt0IXP6MxS5U%2FAqovYd3l62%2BltAxkkq6q7T7LR3xT%2Bcz8gICtekEZU28Hq3d9JkEXhcfclufMmmZusgqh%2B5ww%2B7k3Vwcd9XbHh1JbiELt3Fu67QYbvmRs%2FCg5by%2Fr3TnRlZXhu7ijl5o6qlZ%2BrQrpkGp3PTVTZFKpwyqWabnH%2Fce5T6T%2Ba%2BNhiV5b7vOiQWG1XNvGNzngqewJWX%2BO7%2BPupIVbDas6n8HPju1ZMXmrvkcJ%2FhQ1Ya89RaqlV9P%2Bu0DacBdfrcx5rlPXMqW5%2B%2FVv8cfLHuP4t%2F6ZgDdhPFR8DGRmRoMk6R6Yc9MgU65TdN%2BKH32y1gyJruJn9x3%2BQ4%2B1zUvkZZYoyqq52HfJR1T3OUca8Ss9VrVhgoR1nngEaUXl%2BEwnEj%2B5Lg7fIsNx%2FsEWwXdT%2BI%2FD8UOO75zqXdKad2WS2XFS9L3XHH%2FH3m9r4nePnO%2F7Ys%2Fk6qErLYy0lJ6agZeeN%2FwwccYGT1QoEPwJqvCIveWiGhaw0jqw4olppFhqa8b%2FC%2BdTSMfJ8SlX%2Fp%2B918A8%2Bor5fxP%2FNTuvM3TtoeHe%2FThlVC9NKslFVNwNc6blq86mEHcyuYlSiOqOvmLPKAkLhPzbxCP6j62%2B9f0qwwjHOiiWI80kKVVktH0mD79lpNHuEPZ9yx6Q3iKpAKUiIS%2BdKK4ZmEpg0z1gZ%2FjhD12TDPydq2A6DMfTF%2FCCSlRZO0fLXPJsLM9o5%2FJ%2BS1UU8jHffrIaAVo2H93qXRX3g%2FV5fZeaqtAxwpeeqH3Trtr4z%2Boo5qyzjqus%2FuvixZ5JszVn3T9bAuDz2jM54qngC1XyGupJhFtiO%2BapVZZeFqvBG9bLT64cJ8zEW2juBk3sMRUbTMA9ggQX%2FxuNExVKRpvwrklXWFA5ZaUTl2d%2FRNOseP4pZYB18QoGHvnMyyNx5aXCbSf9x47s%2BV9Vv%2FQ2nBFacueFU%2BfxH298aemcj%2BAollosRz0QwI9ygM56qmBNbdKZpA5nYorobKAtV1yzEXc4xMjWQ2Xzu%2BE7FzK0BZnfYN3ezIOaa7cYL%2BL91Kw6%2BwooX2cJdqES1Yl3fwkumIJzZeGJX6gvVmzcdfOOV0JL6h1jjlZuVAa78e1Xd1scYiWP5mRhHlc9%2F9PFYhwhrwqz%2BfBOLKP8AaClJVcxhKRb%2FbHAgM5D5bBD67tR1UFX8XUSS8JcpqS8QN340V4kWuHQHNRnlvBhKfbH7Vr8H6fkKWPUwq6eGeuYgy1ZNqcPGOz6%2BR9SZ1V7of6CvfPi4Z0Y6zuSjamFa6bv2XhUpNzRDI2ruGXdyLNC1U%2FVs9fxHH4912DsxkOnMds9tPgd%2FPNEpvw99qvKrPL3r8FZaC3Vl26BE558ratV5h5brrxqrSjZWe2oL%2FbGSS62BPrSGWgP31eFR1ZYP7%2F23Jv5tWjqelgG%2BMe9VoU1C5X6i5fIfCh7GYRjtwIM65C%2FhnJc6S%2F9XnldPHdKgJoWtn6q6WQa0qq4yZuwG%2BY%2FxN2PGjBkzZsyYMWPGjBkzZsyYMWPGjBkzZsyYMWPGjBkzZsyYseVnpcgqGjNm7EYTNd1MEGK0kaUITo7BMiNUZj1D6RBgIRmWfxAO%2FFpHr1Vl6qOHh2WCxTJWwxWpzzycMW1rU6TJ5QMexTRpz5cqLpp7Tvw4WJlhBGp%2BBo7p79qA4m5Bmngs%2F5fXJWZFOsN86VmYRFb3agsKnuuswqLabGc2wig6q2t%2BjKX3TfZN4tc1P6Y0CV1XT7c%2Buvjor4tXpcgXo5daH5QVaUf8fJhRy0f8ShZltOdLW1lj1bW5cG1qRVxmL77HjjgmvE9R%2FzPNIBmL4pz2%2FS4zGXS56nQyJ70tVuA43%2FnhhXCDWLVTsHLHWSNKIav78VHwuOp%2FIIMipCx1YtdARq2zGvoUS986vnXcXu35aXmpqlsfXTwuQ3eviwCdg68rVx9cjSm%2F72K8qp0Ka69yLaEXBOWD7i5NogZ0pBfagNRNqJFxxsqEFfWPwLL%2B09uwHqe3jaYjJJ1eWCSe0SKcjaeJvbvxVmCVVIo0mRsZbeHSfvd3JVC1cDG3mnyFKyZVeNRZBYmKOKvFKsJysjg6o%2BzmrAAX9OBrN1HQg9KAVKq66wPik8r6uPCT1iQBH4jbAtCO9c7Gmb8KgVM%2BfqdTH%2Fyu9bWEasxz4a06Nd5xLnewJl9aLgT0WD2Vqon8Ot6IYncG62CUwRrSIF%2FgCGtkgnsnosow2zrYZMcO3HPU%2FiPwqxhxq40cvmkhMjI00%2FaV%2FG5xiVySOYQtkapLVRdU5HNTVb3sG3VWD28VlUA7vFWus3rbPl76oT28l06y2%2FaVj6ru%2BnC8vD4Cb%2FWFUMG%2FT4XH2hcKkKBASfsT6vpA4Buj1ydHk5BqNakbb68qVa4%2BFe7kXqsqkWWbd4sS5D7Nq8qnh9fhq6ASUbCGlDUMzYSvyueGPCTnI541tkrS2bvxqGrS9jZl7inw218N%2Fe75%2B2RdsdMygrCWQjrAh6pe8igqsjo4SsrB0VkV1VPprIau8tLvS92Xk%2BgMXVU0X8ZyaqQIe9z14TWS14fjYceRL%2B1585dWnQL%2FP5PsR790%2F%2BRHvwQRrA%2FU9YliQHhQVZ%2FkNwJPM6d8qumNqgkP%2F0mw8lE1zh7dUfyzR3fECSoZKDuzd6IZZrcwKtdQ8FVVjzwQWaTGlIj%2F8bZ2hrK8%2FmKhznTC9jV7MiHrLH2pir3s0qaWj5Q6KQe3zmoyT2uZzqoVE5InEAzWijBJLnFcKMQlb2pRH8sWpuLEltWH42E86rbr1I2LlGV43EFndIv7J6NbZDvXuNsHHvmrqvpgcshjZLvsG56mlmoIoIpQuUZV3SSUF1VlSr1JNtlU%2FLPJJlp9qqruehS%2F3vUolXr3DHZmdah6zyC%2Fm3sGfdu%2F353R5d2ebHiTzlX1GloX7%2Bisiscu11nlsp9izM7nFX8lu4aOEJeoD253wLdAkNfHqb%2B4Uzne1nzFunMl2j7LFl%2F1byOn%2FJ452FykRVV%2B%2FwUv3dqB93QSKHKdW71RtRSqWnUDmQP7T287sJ%2FL6B3bIU1yVbtd284wVNPqYwVwRMWR1T8ALqz12mMbzupQde2xzeesGEaAsoCZ%2B7I7D5y8HqqKTF%2B5qaqrs4r5U97TYn24Ui%2BMSl%2FL5w4rGd%2FUaKUyJBf1YbWjaZALrVXVx6m%2FuFM5Pr%2BN0IR9NxOqNnLKB6m1enX53u354H7lm700rf1vxKgKMUqcrYAU0Qq1jF6xzJjjwH6jGB6jaR4AQ964gTXA%2FzUUPFDv2r6dcu8vxEe%2BHv9Z62vgq7WUlzWibUsKgIsTMuWnqp7OqjUswt%2FeP%2FExJx8CD9Nqw5NRlPrAcBdU67668PbGCiq8837RST9I1ded8qspOrT6urVcqfn5%2B%2Bj4So%2BqOjPn0bQXVUcVbylY8MQuzMOLvLHqKgJ%2Faotc974YP33f44mOxUd%2BQXtZI8ZXERIvM6rq6ay2vyHKvOOP%2BD3f70P2ZwTFdQkq1P71dV%2F18N6uK6tRZeuDNcJ3rzr4ys9V6Ybqy0upij9VnFeLGzFqXMfGUzUvHTyrAXo3UF7W8PeqPBMsU6QUvxVqiFVVOPzcEKrq6Kx2LIoyh1%2FG74dfFt%2F7adrru4qu7qseXp%2BqpdYHE1IDGTUeXnak9k5sPkfXuV36Z4X%2B9Xf2vHMO%2BW4LelR1Tz2KPy8Pk9Pb%2FXrGsmM%2B2v4Gzp8YYrYjN9a7Y2eS5mu%2F%2Ft6bVJ1VlwJqkPepKi1UPRVd3fro43V1fa%2BjPt2o2k7QrQ3Z%2BA4dnVsNXeKUBzolL1%2BbDK7rU%2Fd6XTZELtRtroeDrMTsRDdVxowZM2bMmDFjxowZM2bMmDFjxowZM2bMmDFjxowZM2bMmDFjxowZM2bMmDFjBeb6o%2By0Pt5KEzRo61BQha4rq6dBmzsnnUdfrlhLodptTKuFmDVJLn0sd0ZGdafebSRTli2lRY0tO8OVCkMzSS0VYAfPQuvfUp3VeDG%2BiNKTVLFK3ZU7aM6KnDijC0TqWfiqSo2CGxdvO7TnwP7e2RBZwpo1jB9Nss3n5Eu3rMmwTX%2BdtTuaqr4lULqUjgBkOUvuaJT4gG7ntEQYW3qvxWdWaOgsrn8SpSdDAxm6CnAhXk3WKLNXSzKqWKU%2BVVGCxCXi9rBegxCbcDgJy73WXiOQzpbYhBUUKy5Al9TxZ%2BpD6nolyZQaBC1QcgsKloK4S79Y%2F4gKvIWCpm7TwRa3Pr271z2L1ZTe0ajwxWVTFnZSl9cVo5JMl3qq8r3WNSU5VVFTIKKhAlyMV5HVq9nKS9X2J9xomXApF8O0Ckq3lHKYaKHfDZ7unU0wykYMos4oZh1fpFI18QcvyS8vpwJH7%2BQrGPOqi%2FX%2Bo7EOtngJHDEi6L%2F%2Bs6hlU%2FD6CzWFkAqt1jpU9fZmf77wPSuKNxTJURXJp6cCXIyXk7WyVEWioaCnc%2FzgvKzvcsbf3lmuczj6G5UcJoZr7ez5%2B7b%2FraojcFPVijWdBE3gs1SqYquqRNyKW05noTVR0lxzxxrtADVQQkBb8QA4yaiRVjGqFKqipK%2BsJvamNFdzeR5bmse%2BCp930lWAvfEyslaWqrbu7DcFwcI3lIBq78TU0NTQ3olkXn5ZZrftQ6mrX4LAaDthLszH6iaGTa4KaZ0gHqcWFMJVlqq6Gha6AapXcHpzA2A%2B9y%2FWIqTUJ0%2FySZ324drbsueLHBt5BYmKm4AEFqw6G89CemT1w%2FuTtfJUjRf0n3HCo%2B%2BdPdC5iq1iBzqFgrAi%2FL26%2BW2rL74B0S0vUNwd91fBRFHzx7TNkOL%2FNcnu%2Fh83n6q6Ghb6qhf6AW3lAmD0F0j9pR0lQZ3a81a10iHJSLzUm9e%2FpRIXtfdACCJRo7YAeuPFHN6LfOvfklTWB7%2F%2BLe%2BzKk9V%2FV66%2B9KmNvy6qa37EiHI7otDd4QCa9F8aKImBUhkNY5MRVngeRKRjifZxqM3n6olvSrTPEMnQK1sAIyEG5liIXcATLtXVxooBCX40ttDEN%2FmjzQUr4MXg4Hm%2B6O5M1y7%2BhSTD4SzpPvQeOGt9Pq3vM8qjaq9s6e3UUa80qgahTzx6W2nt4UfjhK6g9DfgxxnP9%2BJzB7D%2B6ikuB8SXrEPKUSKfYZ731WOqtaYHXyNUQitm8%2FVPUMnQK18AIwZdXcATLvXglGwRa89kT%2F%2BeCvWeKUNIr7b%2Fpdn%2Fd3kUxHVC%2B9P1NKoauvk14gNLtTBZnFqW%2F3om1ngo8BHzaT9Q8Ps4eeEk20%2BB3vo%2FD0prRSwxlqvJdmdv6dQCbuMB%2FoqR9Xm3F3rB8CVyAAvlwC4OANMFwHUzQB3gbokPzh%2F%2FPFNuSlcxK%2BrEeSjELUYLyOqN1WHZmQ3Jza0EBtcEGgx7wp2AkmSGGaURUlymJjHPZB%2FvTH4d%2FbcXPJXS9YenlZaBcRIEBNL%2FJxn%2FlqJg82hnSQGbaTkeLeLydIgJQWcyw1%2F3Rlgan3UVHVUHIGB9lFKWq%2FoKkg%2BKlHdeGtMRlS%2FEMAf7955hpNV1RTFfwKhLYYpkcO0DmK%2BrmlBqNnzfHFgwb9GrQUbJ8GfH9QrCZjh5zReUbZ5C7R4i85IKZIe7iPEdF6tlT9AXV4ZYEHVUupTiqpxGahqZ55COsVyPGjMhsoZUhVuEYUC1cp61BaU31DOpsspEafyWxUrlW4L6tJN2VgB%2Fkghh6a0uX8w5o3nSQ%2F3gYmUcgacyw2v73NLz6HVpxRV41Iy8MtUCVj9ZwDGtNqzRf0TY8aMGTNmzJgxY8aMGTNmzJgxY8aMGTNmzJgxY8aMGTNmzJgxY8ZujsFqucCyqMe0eRbGjEmI2nhR%2FHG6FDdmTYPuyzRFFsxGn7Euw%2FqXMzQ8LucGaZThkjub4WXQkmmasrIxYyU5%2Bbrm7ksJ6coR7obNoDIUgX%2FNSo1DlOxuxtV32QT8D%2FgMRcKk%2BWOQRvmKgrSGoRNgjuA1djarJcu%2FXfgzuKpUq%2Fx57MRgjX6dmqhhorKyW1sW20ofqz5LDw%2F327dsPDLvLTS%2FWYrnS%2BJoZ1GwrvZM08R4nFand95Qtux%2B0ckDH00N9c6mvpCPkbgwbCAzmsaF1mHFiklUiBnIgGh3SqwTbbyorOjBqK2ZFHhJTaTVuaW4fJ2rVTd4y4ZTvbN%2BMp0C35UdP4prB1cxaw%2Bl%2FL0TQzNd2eM7Wa2VblPeAZe60pFBF%2B0fZbpYyll6%2BDgsJ4J4iTwNEms3SxV4kZ2D3sJd1vkks6V4viSOdhYF67RnmFQjd%2FuTO2%2FwH8n98sJACwjIeqFfVtDa923hbnyiHUjWte%2FLaB3l2FpnLV5UQW6rry2HDCmD4JavQB40nVsq1Dl4S%2BPFxovn1sGysmoFPsUaISwHAaxWdMs6Zfmw1A%2BXwnESbjglb2gUssrpU4QoMuhcUYfLXulhaWfp4fEa7bhGl7gzgLN2s1RVRBlWuGySUcjqhaesV6Vj3e0ZJZJV4OWqZY5xqTSf0p3Cui%2FtvlW%2BEA2lJIZf5p9RFSHC5LQ%2BvLX4EcnVdNd86SDXLMibAkc8FnTfQ%2FelwVvUeFRYbWZ87AO3PKnET9qhr01U2QJ8KHc6zNzjX1jaFQik0%2F5qN3ewtLN08bzlEyC7CkFY382mqnDZJIkaXnhaq1Kx7vakkdXB62qseJTuFObWYPAzFD0R4l6xD%2FEcf2xssSvLl2W7H1HiG9k4HGc4VguHkSv%2BOU3L7wHrL6OqwAeejwCWb%2BgxNHNunWIUmwyhHut0WNncjRfbc4r9yfzXdkXAbCtAXIySZbgcLOUst2PRruI8pyiGwmn1SFZZqnKXpVHDC08VN6Nh3e1JqZE%2BUSVk1SNqVdWGs3w7DEiv2FtiyMLB7rnOrMcjysrG4aEZHKvzAixX6XM3TlQZMQR%2B3dTpbRAmx7uyeycgXK2W45%2B%2BtwuSYu1CS0oSvm845SW3IQ%2BYhYAklapRl5uoz2o6qYcvplJYKSRTeaoW3rN%2FDOSNp%2BsQUrCFRFVnX0T7g%2Bi7psZKz1zR%2FeoStapq306uqNaWU1U7frc%2FtvdPibxomHNz%2FRdk4fXGo32TDjbOKFQNPBbN1V%2BeNMnv3BJiNfj11BbWIKNeTguq9vhOjCU4UWVqRrw3dG%2FnpO5NedvTqepgKWedW6eHL6bS0MzH99x8qrrvwT8G8sbTqUrB5uV13Eenuv3jTO%2FlnZWOF94vfz2jQ1TcoGhkymlmSLrU%2BGPHnoH55tniRzT2jCy87vjz4fWOsmCSRNWew3sneP2jykdfcC81%2BOKJQG0gK9ckalbUSKi8ijPVYQ8ihZAqxakcLOUsoftIv0rSta8PyLiFVF5ReaqibyZJw4kXnkpVGlZ3Vx%2Bn%2FcNM52VNuPh%2BA4%2Fx1zN0oqK9kxCPHLK7QanjNvTO2sFyzN13yaTKNpyNstW%2F7b8g0PKdXDBIwEwlTKoaWDXqkmOoocbnk0CgSEjDgwRai7p8Tlbcyys3V02rwx57%2FK2mqB4XY2ln6eKF4Cq8zuqkyLhVmqrcN2nDiReeGqvQsXqKiPpk9SAqzAw%2FFa9ndOTHWPWR7Tju9cydT6mwWM0I7rA67%2FRdMvzJjV3ZcF6wuCsr8sc%2BwfgTuEGU6NtW2ptF7Xvi5uELkwK0REIuyCaoHi%2FF0s7Sw%2BM1Np%2BDqUHjcnhZI9yVFvd54Sn0o2NLURR0yKrzsqbgfq0AzvC2%2F63q9YzHxSEg7Jk7tkN9HsqD7p0YyHRme%2BY2n4MkTqf8HFZzagv%2BuQF3dXCYWil6xYH9fPotlHcP7Gcrbh7eTVZqxi8fZCtVj72wlLMEyn7Nr8Tb6sUdsmmNl%2FM6X2l4mqMLd7XqaHGfg3I%2Bqemngy3NeKvrvKwput%2Fdt9p50MZSBD0hIOyW08gdBsOsOgX4DopKL2zMFMpJa4fUDsNWQLlu5d0VNxfvNDc14%2Bc4q1r12AtL0UrmKP6cVXiaevGNMXedKV7qoFyf1KOeBvZ6yKrzsqaoY4IGqKkyZszYjeh2qiuHNmbMmDFjxowZM2bMmDFjxowZM2bMmDFjxowZM2bMmDFjxowZM2bMmLEym65O7%2FcNb59Dlp1cnvWvuA8FoEYxnda02A2oVVr3SlbMmlyuNM3p9MYZTaf3%2B4YXZ3EZMXp7JrOdWZ36VAp%2FoyzwEUhYfkStC3XBXMGdZ%2FT3fXj%2BPr0rWbHAAuhkTt7Mrobvb5ETbA24WrRYK0al01sani9qw%2F8rU34yL2pW7vK5OPNKG7tyXq3b7%2Bges9SJXQMZSn1Kxe%2BdoOkq2488o%2B0yGtSwJqNK3aPrpWoUBU%2B19k1A4tGvBCMw4BPgpU%2FfW4n6U4nK97ewh4ZY00JeBg11evllhR6QXKfXwbudXYXvnf1kE67f%2FGQTLrClly%2BEoNR4WEUKomYndtHrT7tftKaTHYtIiiR76CUQO5VrGOd0jzfegd9tvIPFkXzy%2BgidZHthoQbeirVeo9QfhcebFqLajkWnhjUcyoum0UJyXVe3%2Bqw9qF%2B5mtHDU0G8E7uGZij4MAggIB6F2W8eVdc1xxdxfwssH%2BsfX1zXbP8CdXqdy6p1eh28%2B5Dju7K49g7Xb%2BKaPRxZaeX3zn58D6eICg8SMCusPVaM1fK19pTyhQCoSpfYqguz3S%2ByBpvejQ%2B91HpN1tBc9xh6QxTlTMP%2FscNbVfUROhd8awUqXjgitpBcV9maXA0uqO9YVGpYgTULzlNrvUYZi3VcHZQx54MgrZ6XcSeO9m2%2FEsSjL%2FEHUb%2BdlFXYlaMqq0HJvUROWteuP1%2BoGlsUI4wNy400%2Fjq9Dl4canzCFRY1nUwQykf5rYEMEnx8AKmtwsO4wkJXezZbdVFGqb%2B4A7UuMYq0JHFGyA7tObTHAodJSGcpXPeY1Q7N4J41sOofPkPDfyPHw3X2WAHcWqHpJBGfIyo8yAYZHgPfkKtzUsl2uTFUagQ%2BSri6bRgRPiqnq%2BPGI4miKK7pCsnpW0amaMRz16n1NfUc1SpqUcq8liaahugm1%2F0mUOqI47vniptMrtNbGt5RlOGqMSr81BCrhyCvmjukGp%2B0FY9YfdNJlc6wwFsFUYQ%2F3nEQqFG9Wg1I6B7z%2B%2BT33ZmV1Qfx1p5WtopFc0KSBLxD1Fo5vulKVEu2ywurogaX23R1gZ2KGXChq8u3uuoLL6lP7%2ByxHbQsLmuhEFVkiXODT0hNZx0RND0tKe8r2L%2Fo%2FZNoMsF%2FuU6vg3f3L3J8V9ZRbj23DkdJVfkBO5OYJ6oSjweEaiys1Bl28O5m8cez%2Fs8G7Zlwv2WPrKj6JBP14LrHVgxHVBxZ8XNCWh%2FET4cxcOdqOgT8mJuocvyxHY4ibqlUVVNDZ5ycGnILx3Zlp4akQezbmLEYmcKYRugSQyvVliOLW0qWuPJUZf0ndjkt1DMHCUTubajTu9R1%2FXV6Hbz7kOMTtpg%2Fzt0wu5UglG%2FL%2F%2FcJotLq4w5o1XgR8Kt1iVn10AwmkxC37qcdi7tflDU01z1mtdDAMDeH%2F2vXnFXVB%2FAwh7ddEEQ61PjmguSHHM9qsWR30C8XHiue2lCooUdVVvPkU47nPPmUXDKoHXWmu2F0tGMa1V4IelncUrLEhW1D1CvU0je0Arz%2BvCOL4wYsfPqBOr3FaRaZTq%2BDd%2Fe6KnwUXnPg3G3lfJRYPu6WktCqj1793TGBXJcYI4HB0825lAkmmKSPJad7LDLAuFWIqj6ID92OLghjMAGPNYF62COqCm%2FrZ4X2TuCj108rqalRyuyTrRCS7yCCrhCVA6IG8xHFLM7My5fFLSVLXPm00u5bU19g%2FXmKqyub%2BmL3rblfOYrrNJ3e0vAio1Wp8iuH586OYXCSfbJJrbjo6B5b800sQqqPLt5OdBHxnODHd6oFSJcE2wRqlOa8rIUH%2FKxFiQy675z6EoWeTNLNEt%2BADDBEWCipa4%2Fatae2uJQLhU5vF1Wn93uGF2dxdXoKUuged2vVp1J4JxDWdRpa4Fua8x7Z3jMnn6V63Xl5srjXkyWuPFWFjmhOW7mm6K71dHq%2Ff3gx4yBjl2P9q%2FVdRgvdr9VCqCJdAWFbSha3mKz6RNW9W2PGjBkzZsyYMWPGjBkzZsyYMWPGjBkzZsyYMWPGjBkzZsyYMWPGjBkzVgaDZXN7TCsYM1ZICw1dWVC6QQmPPvtzn72m%2F6DGlfrg%2FDNqWUZc2dpzuOL3PW0xqhwm1PqMVtkZlcJBHsm8P2tcK13GNnkOD%2B%2FvvpO%2BHbsxisPqZ3TdT0lXFzf2Ye9sfDEIq%2BytySDoqfXOxj4kXWUMnTfI2tidv1evSQi8FGU%2F3qbRAUwjleD%2FPh18x%2F%2B98wrtj9KtsQi0Dl3a0gpwsU01Ta0CVY1kSfqyoDYx7f3UoPtlHse8f1m9R%2FDw%2Fu67aO1PoG6H1DPn1a1SOl4QFddrXydZdXVxI%2Bzh53D1IwoQ4kq%2Fh5%2BLqB0y1nilmfHrbD7X%2F09qqq4F2cz1D9hjWZ2y6aaDrJ0hldqhK%2FBzWi%2F87eze1wtEkX3P4TKeoAZBHINZDW2ZlK4AiHASrmMPI8Y8J3i7z1NLeJafYOWmKldbLGV8kY824rdC%2F0gp47aka2qVyNlwmbtEvlUoMnF6eIeoOenV0skqdHFhmS8s6hEKDBIdWlu%2Frwkwzz797NOop9acFxXzf4yBhXhOKWbvxIP7w0Bx1aiHzdH%2BRlXVnb%2BXdxwYKLcXuGE7y4scE%2FAPPtJ8VIYXY3wC1HcHMqDG9xK1ZWlUXSrmIV9clVcFBBkPR3sKjw2n6F2BrF7Q2wWdBd2F38laNczU7bh0fJGPNs5vWUjIzsjr339h6b0Ov6zb%2Fv5PQL897auEuMQLbXleYWvkvxO6uPFF%2FC6%2BqNLFdfSL7nrgrgccXSPZpbmgaFd2%2FCjr7jrULJUd4zYeyfVBk%2BvfiUrnwo3vRmGcFuLeXAsI4oJ3qfhX1%2FSmZXg%2BdqE85%2Bs%2FfP2HttQmaV8WvnGGeusMz%2FCUyV0LZbJSX8Q3CKkRfCYgYxoqj2sV1oA0ZtTxyCxKIKtVl%2FjcGV%2FEaJP4XDEWQaSE7u7oGvmVv%2Fm1pfe6dVy3%2FS2JTFzPnF7n6n4S1FC5aHLDySp0cWEwr4NmVOriOg%2FfTVX5xTsWcdQ%2BtWV0i3W5TdnPWcPWQRE%2BhhiOgOGr%2FikuFCz5oDvJpu9DAtpiHXfbakUHKfjUV7DivsUfzw2FxkbTq0D%2BczSNomUUojZe5LVROW9JfTTIeDz7k9Uu1UI%2FopZC1cLfq%2BsjiJokkRXlSHjsBi54OSyVzGEhrlIIVOhwZxRkNbr%2FiaX3%2BnhCt%2F1lio6P%2FAKyLkw3A0ClKu%2BeChVBc2R1dHQDjwUeU%2BviVlVh4IsHUlV8lo9JCXgYR7YH34MkVK78w%2Bv98a2frJvCG%2BudFSNfnPlJRvdNwoz2X1j1QGb1b%2FfZwlGwSUTN%2Bn9Jsr5JP3z3JY6%2F96Uk23Icf%2BqPFwmlnrkZe5yfifTMRdTbTsS43Bt33pXzsnEYHXHpP9UD7eniRJ3YvX2tfQdvlS9g06OqQ1SxaQmdrPE8Uf1Se1x5WcfpxweK7xRGwZryURVKa2j7yvuc7a9eP1VzOtlFh%2F18HV3c1vxWA%2FIAFSlafEjdanNX9uHnAguRfOlIJ3981O5vkYL78j1kfIPfvGoggyPi%2BVTn%2Fw7aJZ9P4cgJVwj64SGgTiMex3fMMVtpf7xIKL3wU1a9%2Bdzmc6z6hZ%2FaWz3UyYiKgakY4zefs%2BeVMf8HyLO%2Bhf9UXUEgR9Tmj5vssv0zwJWlqkNUGNe7%2BWxSvd2VQ1Y5Uf0cXFYj3Jug8E4H3tOPavzLhzG1L%2B5zjmwAolKVz8kLJV5zMZOujm5V1WrGD6So%2BCy9eH3%2FhWaXtH9X9nxKdUvYGHf%2Bnq1wlO390OdTvbNtLPA8nII3Fg881gaP3%2F8KiIcEyLuv%2FxCdhdVbB8NSPCaUgKJw%2FQf3P7gf7wbJJ9vvLLDQmQWJ745czTsO7O%2FMBhbKNapiSCTkM8cjuBFRkzQDXOy44hn4X4HvpwcZ1z7IL6d5d%2BNPug2nckQNOakf7wSXF1lVRF3q4JgJzonD%2BqSiQHPK5ehd2cG%2FKydVYUx92%2FsMaIOacsxVsRXd3%2BcnN7o6urpzVXxrGylI%2BoBAp%2FThiPFo306%2BcR2eI3%2Fom8%2B1wTiM73mty63gWLLHz8WxI%2Fa2E3f92Qq0MSGV7Z2JxhdSJzfi52bIdePXkxu7sjCK%2Bb6%2F3XAWpCFXiLrDllcrTm3ZcLZco6qgmi2HaW9EJM8Ao%2BPyZ%2FrZoMuFJZ0l77zDkPhtyu1WgF2UzLGcmXLhdyqyylrefb%2F5eZsrE0y7Ck6%2B5G%2FndalqBdp9znh0h%2FSVk6KDKWxTn%2B90dXH1qNp4sfvS6W2gTgd5S8xVqgWgT25EYoNoZn3ra7w%2BzjYa3g%2BddcBmVO8l%2FpD4w8B7h%2FYUpiA88ZCuuAeS%2BtsObWoDvKRGzR9jwm1VvhvDr6vsCKH5Y9%2FyO7B3FYrtOJ6CQGRHuUZVQbX8Jo%2BpgiDJ5xrq0cs9bvBx1TVdaVC8iAj5fad6Duo6uWvivLaR3S28xMqTuwnOmmwqJ1Wbj3rjYXirV4W11A5G1mRaurh6VO2%2BBE5Sk3Mrkogjq%2Fn4HiB3A87AemdpOrewTUIHhMBx%2BL%2BedI36TdAN%2FGwjkKhe1idHmd%2BjjCpe2nTbe42c2NU9p3JF%2FbnqUpO6bp0OUfkkYWRKbMQwMiWfrlTail6KhNTdATzTfmenP9ZP82YqVdde88Y%2F%2FJw6rL1OooqelK4rm2%2B2W%2BBQvlXSc5J851GTu1InXedW8xotTClIDZ1Lv%2BSQng1tWcvVbrVcsb80fVmp61bTRL0LzmjJzfhS8Km66jtnogXVLan7JxCFM2HXoeZNqAxErWijfQcftDFjxowZM2bMmDFjxowZM2bMmDFjxowZM2bMmDFjxowZM2bMmDFjxoz9%2F2u4KsiaNO1gTOYkgWLZCarynNZV6uyy6zRcFwRkdJzX1iee%2F64%2BhRBIyIR81S6W3CtZKy%2BHR53neZrO8zLFT0NXdhn%2BH9PyuTN2Gx0sqydraWHlz8rYyAyt9KVXs7%2BJjBQLTzbfr0X0PUh2BQokTLBsuXhJvoED6LqNFxsvhph9BYoOXl3o2vjRBNN4jJlcMxzU6Azmya41r%2BcgsAakBv9R0VQdJkfnOUHUeV6O%2BLav%2Bv9p5JV9T9zzWzXescZ3caU0LHMMSkrX1kkubXlF1F7rEyWIzRaWJ1YI8UJ%2BvWSB16%2BJzg594yoW%2Fmr3rSqHCX6ZyHUDwY9U5a5rhvWhGVxmhkvQrMwqtq5ZXZvA853ZX3YnSRLZ1suo5rrhFOt%2F9umRqTbSWAaaCJdv%2F%2Bcnn2omdQbN7Mmnbv9nGAX66FQFXZ1v7QXyhNqM%2FsY5lA6rqfNcKr53VkjTlr98EMwJxT6M%2FjryNUUQRvgnSgQNv4nLHP3JnWDutsQDqSHr8kGmr5jYw%2BquIMkKxNnnZX7Ax187qszwETXn17HPiqka%2B4zguOmVi21fJv5P97%2FGGatWadrF3es8FX0iq%2BmdjbrwsGhXOdZYsTb20EsYH1DGow1HhSLrxq2jP7nzL8H3lOVPr17Y9wTraH9Dpkjh2NBM%2BxusY98TqxesacIIzFAYpapq3%2BP%2FKX37%2B9BRnVHVpo2JI3RNHqcInWe%2BsDn%2FDMbUeEd3l4Lvyh7ZfmQ7X%2BVKK98RCFLhu7K4PPz1Hx7rO7YDZQeijBLbDN7CNS9RAXOlLzW6sk5b8gPJIRO0YSuETolQz2Ir%2FNG6kulJxn20%2B9LgLYO3dF%2FicZMYVT2WTUvcyp7ZBlnH3A%2F%2BNW5vnuEqysfa7naX3na3Yo7KintduOKkfJQMfglaBY0YH6h7Lej%2Fj4j6vhK464GHXoj9m%2F9GVnZpz7UzkJlZYY3ZAtL8mPSrPR42boyt%2BGRTO5wtn820XjuwH3XqqqpeDf588L89%2BvNfyHcrsPoii474yuBpf90mNKHzbJMjtHeCk2nt%2B3J8VxaW9IecM1X4JNv9IkoH7H6RiudPQF1%2BB3QYG87iUkpWs6lNSL93EDrMppO87NVAP%2F8F%2Fj7rT6XL6T%2FodmRyurIfdFOnKiTtJgh%2BMT6J2hPAqB2r5NbdWn1eBfkFbs1MKPTGXcJmKqomniroUZ6SYd9JFMrH8NDqnYR8lIwz1Cqwl4v3T42i6j%2BNqqz655HB%2F3L%2FP7Yq8bazNIhHeXpb5GsvdORrl4JRA5bPz5a1z%2FZXQ79DEtlLumsv3fp4p7w113z55FPOKmAWks%2FPuc6zmFGxBtzCBOKmRRm%2BdxaUmxqceZIKbwuR2EurWQMfcVT4Yqr64xPfJNkPzvPPLS9QdKpzHVpO7ptLzhzbUb65Kj6nid2i7Ind5VWZQLvQjyJKUTuixM%2FCuSa8CopMeBfSOytU4wsvK7%2F02k%2Fd6LWfysMWPui7DwwGKFSym%2F4%2FxLdEXk4qqSfCcPbvt%2FaN%2FiRJpLb1V9aQ9RfUVxp%2B0ws9%2FOZKfNB%2FAdRfifNVVGXBxDfWsFARYP8OO0NZamvgPRzfc99VW6vlbd%2BZLbz6xjuwfTuzMnz3pY13FLaAHG%2BrHjEeg3CRMBUegsZ%2BPobwMNsf3%2FVtErf1CkBK73LHn%2FNj2bc0og7NnNgF4j9xf8UO91zVGVVV6UlWPzKF5Y9MqQSCHC%2FGK9Co6oS%2BPAwWvdyHXlT129sNpT90qWodXBLQSnKjuAPc0oDcf6eYQirBmLP%2Bjj1r%2F238qAy%2F%2FljvLG59Yb%2FeAams1ZK5SWH5oWTscNe39uNs8Wwfe1zv%2BjZ2OJSkUrWq6oWfuretstKymRLkuX9mpTG5Bd1GfNWPwjvkZfM9XETC3xoLLESlOs%2BIj6Jy8Zh4UZBU4peOkip8e262iVMKOX7gPfx905W%2ByUd%2BESVq%2BzpEhalqrTzT4Z6rOqOqak8ljP7wCu8kVDghav%2Fs09t2bdvlfCdPpInQl4fBwrninrF6XHZzSXZg%2F8iUE6jKqGqNtS2hXpskLYDOXqyg6EcMj1GvoXvbbZ%2BlvmCN0lT7miPbY4vWnq3juJ2ffG7iLt%2BqTo4k3vceTwvH1sT7yRGrmkpVVr%2Fh7Mq8m3QsHt%2Fpj9394mrGZ7Yt94X%2B%2B23vrYHwTla2o%2FMMhJ0Wesz%2BOs8cn8CXKNPOmSp8MVXVeJA9j1mx1msq%2FIP7%2BXSrDc4YTbP%2Bzwb3TsjlTt1EVc9oS5mr8iDYnlgo5YiEUnbxIX%2BxI0JfHgaXHKtjv3jvj4BSnae3jR%2FFuYmMqm%2B2jR9FNURnGj6QGT%2F6ZpukqQNYUYeoUenLlHxAiyLT1aFNkZej7Mh2ZUPXPvTSbdceTyRIGePeI11ZlLUMrkk93MGOKV%2FAHOvrYKmHg2v4CKmmKgqSOmHYfz4hE1iz58shm6pX1l7d9BqGd9KSG5y2bCfoPDv4dndnScDTdKQFHl%2FbBT9KaJSfYIOPI0U6ZmR4PaKWNld1PIOG0tIZ9swA29OL4mQyphFkaRm%2B1xafy4KMYyNoHMKsYzTt3%2FsABtQQPxs8tOfQHki6pOC7RllvtPtWcL9O8Z4OO4Tdt0pcEfvAIPa2ic%2F%2FGj6EYAsoiojpdLgze9s%2B4qaKweM7OxZxhrpGsYmHeN00kFljqwfjCIm1U78kd78uoL2FhZdk3dBhKmujq%2FN8o%2FBRFtUsv%2B0rePGSuf1zGV6PqEvfq9LmqvwZUF7c6e5ugE%2FWrgNMNW2tSdt3bD8tLsqy09vS90o4HwsWp0bUAcPqhdULFP1CLi06MoUBwMiU3SHQzurMBS9ByiNi1dtfbSXMScQonA%2BU4iR8vFBaW6%2F3paAxvUese17nGSMata7y8sRvPtcz1%2FVt6HcPPyfHY3iso7db%2FF6VOleVay%2BXHmAnPf%2Bw0H7Wpcbq%2BgZX0igV9WdRj7aqYmaPdjdVjnrJ6E3%2BM7WRqcYr2I2RS%2Bc6zxjRNHxH8R0QQxB0qvkEQcsrS%2FT%2Fyqj6FntAqcrQxpYLsVsw%2BDXt8P2x%2FwdFm3wBeW40TQAAAABJRU5ErkJggg%3D%3D%22</div></td></tr><tr><td style="font-weight:bold;vertical-align:top;">script_name</td><td style="vertical-align:top;">:</td><td><div></div></td></tr><tr><td style="font-weight:bold;vertical-align:top;">server_name</td><td style="vertical-align:top;">:</td><td><div>Apollo</div></td></tr><tr><td style="font-weight:bold;vertical-align:top;">server_port</td><td style="vertical-align:top;">:</td><td><div>8000</div></td></tr><tr><td style="font-weight:bold;vertical-align:top;">server_protocol</td><td style="vertical-align:top;">:</td><td><div>HTTP/1.1</div></td></tr><tr><td style="font-weight:bold;vertical-align:top;">server_software</td><td style="vertical-align:top;">:</td><td><div>Rocket 1.2.6</div></td></tr><tr><td style="font-weight:bold;vertical-align:top;">web2py_path</td><td style="vertical-align:top;">:</td><td><div>D:\\Applications\\web2py-master</div></td></tr><tr><td style="font-weight:bold;vertical-align:top;">web2py_version</td><td style="vertical-align:top;">:</td><td><div>2.9.12-stable+timestamp.2015.01.17.00.07.04</div></td></tr><tr><td style="font-weight:bold;vertical-align:top;">wsgi.errors</td><td style="vertical-align:top;">:</td><td><div>&lt;open file &#x27;&lt;stderr&gt;&#x27;, mode &#x27;w&#x27; at 0x0000000001BFB150&gt;</div></td></tr><tr><td style="font-weight:bold;vertical-align:top;">wsgi.file_wrapper</td><td style="vertical-align:top;">:</td><td><div>&lt;class wsgiref.util.FileWrapper at 0x0000000003346528&gt;</div></td></tr><tr><td style="font-weight:bold;vertical-align:top;">wsgi.input</td><td style="vertical-align:top;">:</td><td><div>&lt;socket._fileobject object at 0x0000000003DE97C8&gt;</div></td></tr><tr><td style="font-weight:bold;vertical-align:top;">wsgi.multiprocess</td><td style="vertical-align:top;">:</td><td><div>False</div></td></tr><tr><td style="font-weight:bold;vertical-align:top;">wsgi.multithread</td><td style="vertical-align:top;">:</td><td><div>True</div></td></tr><tr><td style="font-weight:bold;vertical-align:top;">wsgi.run_once</td><td style="vertical-align:top;">:</td><td><div>False</div></td></tr><tr><td style="font-weight:bold;vertical-align:top;">wsgi.url_scheme</td><td style="vertical-align:top;">:</td><td><div>http</div></td></tr><tr><td style="font-weight:bold;vertical-align:top;">wsgi.version</td><td style="vertical-align:top;">:</td><td><div><table><tr><td><div>1</div></td></tr><tr><td><div>0</div></td></tr></table></div></td></tr><tr><td style="font-weight:bold;vertical-align:top;">wsgi_errors</td><td style="vertical-align:top;">:</td><td><div>&lt;open file &#x27;&lt;stderr&gt;&#x27;, mode &#x27;w&#x27; at 0x0000000001BFB150&gt;</div></td></tr><tr><td style="font-weight:bold;vertical-align:top;">wsgi_file_wrapper</td><td style="vertical-align:top;">:</td><td><div>&lt;class wsgiref.util.FileWrapper at 0x0000000003346528&gt;</div></td></tr><tr><td style="font-weight:bold;vertical-align:top;">wsgi_input</td><td style="vertical-align:top;">:</td><td><div>&lt;socket._fileobject object at 0x0000000003DE97C8&gt;</div></td></tr><tr><td style="font-weight:bold;vertical-align:top;">wsgi_multiprocess</td><td style="vertical-align:top;">:</td><td><div>False</div></td></tr><tr><td style="font-weight:bold;vertical-align:top;">wsgi_multithread</td><td style="vertical-align:top;">:</td><td><div>True</div></td></tr><tr><td style="font-weight:bold;vertical-align:top;">wsgi_run_once</td><td style="vertical-align:top;">:</td><td><div>False</div></td></tr><tr><td style="font-weight:bold;vertical-align:top;">wsgi_url_scheme</td><td style="vertical-align:top;">:</td><td><div>http</div></td></tr><tr><td style="font-weight:bold;vertical-align:top;">wsgi_version</td><td style="vertical-align:top;">:</td><td><div><table><tr><td><div>1</div></td></tr><tr><td><div>0</div></td></tr></table></div></td></tr></table></div></td></tr><tr><td style="font-weight:bold;vertical-align:top;">extension</td><td style="vertical-align:top;">:</td><td><div>html</div></td></tr><tr><td style="font-weight:bold;vertical-align:top;">folder</td><td style="vertical-align:top;">:</td><td><div>D:\\Applications\\web2py-master\\applications\\Frick\\</div></td></tr><tr><td style="font-weight:bold;vertical-align:top;">function</td><td style="vertical-align:top;">:</td><td><div>upload</div></td></tr><tr><td style="font-weight:bold;vertical-align:top;">global_settings</td><td style="vertical-align:top;">:</td><td><div><table><tr><td style="font-weight:bold;vertical-align:top;">app_folders</td><td style="vertical-align:top;">:</td><td><div>set([&#x27;D:\\\\Applications\\\\web2py-master\\\\applications\\\\admin\\\\&#x27;, &#x27;D:\\\\Applications\\\\web2py-master\\\\applications\\\\welcome\\\\&#x27;, &#x27;D:\\\\Applications\\\\web2py-master\\\\applications\\\\Frick\\\\&#x27;])</div></td></tr><tr><td style="font-weight:bold;vertical-align:top;">applications_parent</td><td style="vertical-align:top;">:</td><td><div>D:\\Applications\\web2py-master</div></td></tr><tr><td style="font-weight:bold;vertical-align:top;">cmd_args</td><td style="vertical-align:top;">:</td><td><div><table></table></div></td></tr><tr><td style="font-weight:bold;vertical-align:top;">cmd_options</td><td style="vertical-align:top;">:</td><td><div>&lt;Values at 0x364c608: {&#x27;verbose&#x27;: False, &#x27;ip&#x27;: &#x27;127.0.0.1&#x27;, &#x27;debuglevel&#x27;: 30, &#x27;with_scheduler&#x27;: False, &#x27;ips&#x27;: [&#x27;192.168.56.1&#x27;, &#x27;fe80::94a5:5e73:d9b5:ded3%3&#x27;, &#x27;172.16.25.120&#x27;, &#x27;fe80::2807:4e7f:d1b2:47d0%13&#x27;], &#x27;shutdown_timeout&#x27;: 5, &#x27;taskbar&#x27;: False, &#x27;with_coverage&#x27;: False, &#x27;scheduler_groups&#x27;: None, &#x27;port&#x27;: 8000, &#x27;maxthreads&#x27;: None, &#x27;softcron&#x27;: False, &#x27;server_name&#x27;: &#x27;Apollo&#x27;, &#x27;bpython&#x27;: False, &#x27;nogui&#x27;: False, &#x27;pid_filename&#x27;: &#x27;httpserver.pid&#x27;, &#x27;extcron&#x27;: False, &#x27;runcron&#x27;: False, &#x27;run_system_tests&#x27;: False, &#x27;test&#x27;: None, &#x27;folder&#x27;: &#x27;D:\\\\Applications\\\\web2py-master&#x27;, &#x27;config&#x27;: &#x27;&#x27;, &#x27;minthreads&#x27;: None, &#x27;shell&#x27;: None, &#x27;run&#x27;: &#x27;&#x27;, &#x27;log_filename&#x27;: &#x27;httpserver.log&#x27;, &#x27;profiler_dir&#x27;: None, &#x27;args&#x27;: [&#x27;&#x27;], &#x27;socket_timeout&#x27;: 5, &#x27;ssl_ca_certificate&#x27;: None, &#x27;scheduler&#x27;: None, &#x27;interfaces&#x27;: None, &#x27;ssl_private_key&#x27;: &#x27;&#x27;, &#x27;gae&#x27;: None, &#x27;password&#x27;: &#x27;&lt;ask&gt;&#x27;, &#x27;request_queue_size&#x27;: 5, &#x27;ssl_certificate&#x27;: &#x27;&#x27;, &#x27;cronjob&#x27;: False, &#x27;numthreads&#x27;: None, &#x27;quiet&#x27;: False, &#x27;import_models&#x27;: False, &#x27;timeout&#x27;: 10, &#x27;plain&#x27;: False, &#x27;nobanner&#x27;: False}&gt;</div></td></tr><tr><td style="font-weight:bold;vertical-align:top;">db_sessions</td><td style="vertical-align:top;">:</td><td><div>set([])</div></td></tr><tr><td style="font-weight:bold;vertical-align:top;">debugging</td><td style="vertical-align:top;">:</td><td><div>False</div></td></tr><tr><td style="font-weight:bold;vertical-align:top;">gluon_parent</td><td style="vertical-align:top;">:</td><td><div>D:\\Applications\\web2py-master</div></td></tr><tr><td style="font-weight:bold;vertical-align:top;">is_jython</td><td style="vertical-align:top;">:</td><td><div>False</div></td></tr><tr><td style="font-weight:bold;vertical-align:top;">is_pypy</td><td style="vertical-align:top;">:</td><td><div>False</div></td></tr><tr><td style="font-weight:bold;vertical-align:top;">is_source</td><td style="vertical-align:top;">:</td><td><div>True</div></td></tr><tr><td style="font-weight:bold;vertical-align:top;">local_hosts</td><td style="vertical-align:top;">:</td><td><div><table><tr><td><div>fe80::94a5:5e73:d9b5:ded3%3</div></td></tr><tr><td><div>::ffff:127.0.0.1</div></td></tr><tr><td><div>::1</div></td></tr><tr><td><div>172.16.25.120</div></td></tr><tr><td><div>192.168.56.1</div></td></tr><tr><td><div>Apollo</div></td></tr><tr><td><div>127.0.0.1</div></td></tr><tr><td><div>fe80::2807:4e7f:d1b2:47d0%13</div></td></tr></table></div></td></tr><tr><td style="font-weight:bold;vertical-align:top;">web2py_version</td><td style="vertical-align:top;">:</td><td><div>2.9.12-stable+timestamp.2015.01.17.00.07.04</div></td></tr></table></div></td></tr><tr><td style="font-weight:bold;vertical-align:top;">is_https</td><td style="vertical-align:top;">:</td><td><div>False</div></td></tr><tr><td style="font-weight:bold;vertical-align:top;">is_local</td><td style="vertical-align:top;">:</td><td><div>True</div></td></tr><tr><td style="font-weight:bold;vertical-align:top;">is_restful</td><td style="vertical-align:top;">:</td><td><div>False</div></td></tr><tr><td style="font-weight:bold;vertical-align:top;">is_sheduler</td><td style="vertical-align:top;">:</td><td><div>None</div></td></tr><tr><td style="font-weight:bold;vertical-align:top;">is_shell</td><td style="vertical-align:top;">:</td><td><div>None</div></td></tr><tr><td style="font-weight:bold;vertical-align:top;">now</td><td style="vertical-align:top;">:</td><td><div>datetime.datetime(2015, 1, 29, 17, 10, 33, 570000)</div></td></tr><tr><td style="font-weight:bold;vertical-align:top;">raw_args</td><td style="vertical-align:top;">:</td><td><div></div></td></tr><tr><td style="font-weight:bold;vertical-align:top;">raw_extension</td><td style="vertical-align:top;">:</td><td><div>None</div></td></tr><tr><td style="font-weight:bold;vertical-align:top;">url</td><td style="vertical-align:top;">:</td><td><div>/Frick/default/upload</div></td></tr><tr><td style="font-weight:bold;vertical-align:top;">utcnow</td><td style="vertical-align:top;">:</td><td><div>datetime.datetime(2015, 1, 29, 22, 10, 33, 570000)</div></td></tr><tr><td style="font-weight:bold;vertical-align:top;">uuid</td><td style="vertical-align:top;">:</td><td><div>Frick/127.0.0.1.2015-01-29.17-10-33.c424dc24-605d-49bd-82d7-deb2886651e7</div></td></tr><tr><td style="font-weight:bold;vertical-align:top;">wsgi</td><td style="vertical-align:top;">:</td><td><div>&lt;gluon.main.LazyWSGI object at 0x000000000366F400&gt;</div></td></tr></table></div>'
tRp62
sS'frames'
p63
(lp64
(dp65
S'file'
p66
S'D:\\Applications\\web2py-master\\gluon\\restricted.py'
p67
sS'dump'
p68
(dp69
S'environment'
p70
S"{'A': <class 'gluon.html.A'>, 'ANY_OF': <class 'gluon.validators.ANY_OF'>, 'ASSIGNJS': <function ASSIGNJS>, 'Auth': <class 'gluon.tools.Auth'>, 'B': <class 'gluon.html.B'>, 'BEAUTIFY': <class 'gluon.html.BEAUTIFY'>, 'BODY': <class 'gluon.html.BODY'>, 'BR': <class 'gluon.html.BR'>, 'BUTTON': <class 'gluon.html.BUTTON'>, 'CAT': <class 'gluon.html.CAT'>, ...}"
p71
sS'ccode'
p72
S'<code object <module> at 000000000422CCB0, file ...lications\\Frick\\controllers/default.py", line 12>'
p73
ssS'lnum'
p74
I224
sS'lines'
p75
(dp76
I224
S'        exec ccode in environment'
p77
sI225
S'    except HTTP:'
p78
sI226
S'        raise'
p79
sI227
S'    except RestrictedError:'
p80
sI228
S'        # do not encapsulate (obfuscate) the original RestrictedError'
p81
sI219
S'    try:'
p82
sI220
S'        if isinstance(code, types.CodeType):'
p83
sI221
S'            ccode = code'
p84
sI222
S'        else:'
p85
sI223
S'            ccode = compile2(code, layer)'
p86
ssS'call'
p87
S"(code='# -*- coding: utf-8 -*-\\n# this file is released ...,rules)\\n\\nresponse._vars=response._caller(upload)\\n', environment={'A': <class 'gluon.html.A'>, 'ANY_OF': <class 'gluon.validators.ANY_OF'>, 'ASSIGNJS': <function ASSIGNJS>, 'Auth': <class 'gluon.tools.Auth'>, 'B': <class 'gluon.html.B'>, 'BEAUTIFY': <class 'gluon.html.BEAUTIFY'>, 'BODY': <class 'gluon.html.BODY'>, 'BR': <class 'gluon.html.BR'>, 'BUTTON': <class 'gluon.html.BUTTON'>, 'CAT': <class 'gluon.html.CAT'>, ...}, layer=r'D:\\Applications\\web2py-master\\applications\\Frick\\controllers/default.py')"
p88
sS'func'
p89
S'restricted'
p90
sa(dp91
g66
S'D:\\Applications\\web2py-master\\applications\\Frick\\controllers\\default.py'
p92
sg68
(dp93
sg74
I101
sg75
(dp94
I96
S'    rules = {'
p95
sI97
S"        '<tablename>': {'GET':{},'POST':{},'PUT':{},'DELETE':{}},"
p96
sI98
S'        }'
p97
sI99
S'    return Collection(db).process(request,response,rules)'
p98
sI90
S'def api():'
p99
sI91
S'    """'
p100
sI92
S'    this is example of API with access control'
p101
sI93
S'    WEB2PY provides Hypermedia API (Collection+JSON) Experimental'
p102
sI94
S'    """'
p103
sI95
S'    from gluon.contrib.hypermedia import Collection'
p104
ssg87
S'()'
p105
sg89
S'<module>'
p106
sa(dp107
g66
S'D:\\Applications\\web2py-master\\gluon\\globals.py'
p108
sg68
(dp109
S'self'
p110
S'undefined'
p111
sS'f'
S'<function upload>'
p112
ssg74
I393
sg75
(dp113
I388
S"        self.flash = ''            # used by the default view layout"
p114
sI389
S'        self.meta = Storage()      # used by web2py_ajax.html'
p115
sI390
S'        self.menu = []             # used by the default view layout'
p116
sI391
S'        self.files = []            # used by web2py_ajax.html'
p117
sI392
S'        self._vars = None'
p118
sI393
S'        self._caller = lambda f: f()'
p119
sI394
S'        self._view_environment = None'
p120
sI395
S'        self._custom_commit = None'
p121
sI396
S'        self._custom_rollback = None'
p122
sI397
S"        self.generic_patterns = ['*']"
p123
ssg87
S'(f=<function upload>)'
p124
sg89
S'<lambda>'
p125
sa(dp126
g66
S'D:\\Applications\\web2py-master\\applications\\Frick\\controllers\\default.py'
p127
sg68
(dp128
S'urllib'
p129
S"<module 'urllib' from 'D:\\Applications\\Python 2.7.8\\lib\\urllib.pyc'>"
p130
sS'imgData.decode'
p131
S'<built-in method decode of str object>'
p132
sS'urllib.unquote'
p133
S'<function unquote>'
p134
sS'fh'
p135
S"<open file 'D:\\\\Applications\\\\web2py-master\\\\app...ick\\\\static/images\\\\imageToSave.jpg', mode 'wb+'>"
p136
sS'imgData'
p137
S'\'"data:image/png;base64,iVBORw0KGgoAAAANSUhEUgAAA...xpYLsVsw+DXt8P2x/wdFm3wBeW40TQAAAABJRU5ErkJggg=="\''
p138
sS'fh.write'
p139
S'<built-in method write of file object>'
p140
ssg74
I21
sg75
(dp141
I16
S"    imgData = request.vars['data']"
p142
sI17
S'    print imgData'
p143
sI18
S"    myfile = os.path.join(request.folder, 'static/images', 'imageToSave.jpg')"
p144
sI19
S''
sI20
S'    fh = open(myfile, "wb+")'
p145
sI21
S"    fh.write(urllib.unquote(imgData.decode('base64')))"
p146
sI22
S'    fh.close()'
p147
sI23
S''
sI24
S"    print 'done'"
p148
sI25
S''
ssg87
S'()'
p149
sg89
S'upload'
p150
sa(dp151
g66
S'D:\\Applications\\Python 2.7.8\\lib\\encodings\\base64_codec.py'
p152
sg68
(dp153
S'output'
p154
g111
sS'global base64'
p155
S"<module 'base64' from 'D:\\Applications\\Python 2.7.8\\lib\\base64.pyc'>"
p156
sS'base64.decodestring'
p157
S'<function decodestring>'
p158
sS'input'
p159
S'\'"data:image/png;base64,iVBORw0KGgoAAAANSUhEUgAAA...xpYLsVsw+DXt8P2x/wdFm3wBeW40TQAAAABJRU5ErkJggg=="\''
p160
ssg74
I42
sg75
(dp161
I37
S"        'strict' handling which is the only currently supported"
p162
sI38
S'        error handling for this codec.'
p163
sI39
S''
sI40
S'    """'
p164
sI41
S"    assert errors == 'strict'"
p165
sI42
S'    output = base64.decodestring(input)'
p166
sI43
S'    return (output, len(input))'
p167
sI44
S''
sI45
S'class Codec(codecs.Codec):'
p168
sI46
S''
ssg87
S'(input=\'"data:image/png;base64,iVBORw0KGgoAAAANSUhEUgAAA...xpYLsVsw+DXt8P2x/wdFm3wBeW40TQAAAABJRU5ErkJggg=="\', errors=\'strict\')'
p169
sg89
S'base64_decode'
p170
sa(dp171
g66
S'D:\\Applications\\Python 2.7.8\\lib\\base64.py'
p172
sg68
(dp173
S'global binascii'
p174
S"<module 'binascii' (built-in)>"
p175
sS'binascii.a2b_base64'
p176
S'<built-in function a2b_base64>'
p177
sS's'
S'\'"data:image/png;base64,iVBORw0KGgoAAAANSUhEUgAAA...xpYLsVsw+DXt8P2x/wdFm3wBeW40TQAAAABJRU5ErkJggg=="\''
p178
ssg74
I321
sg75
(dp179
I320
S'    """Decode a string."""'
p180
sI321
S'    return binascii.a2b_base64(s)'
p181
sI322
S''
sI323
S''
sI324
S''
sI325
S'# Useable as a script...'
p182
sI316
S'    return "".join(pieces)'
p183
sI317
S''
sI318
S''
sI319
S'def decodestring(s):'
p184
ssg87
S'(s=\'"data:image/png;base64,iVBORw0KGgoAAAANSUhEUgAAA...xpYLsVsw+DXt8P2x/wdFm3wBeW40TQAAAABJRU5ErkJggg=="\')'
p185
sg89
S'decodestring'
p186
sasS'pyver'
p187
S'Python 2.7.8: D:\\Applications\\Python 2.7.8\\python.exe (prefix: D:\\Applications\\Python 2.7.8)'
p188
sS'session'
p189
g61
(S's\x1a\x00\x00\x00<div><table></table></div>'
tRp190
sS'etype'
p191
S"<class 'binascii.Error'>"
p192
sS'date'
p193
S'Thu Jan 29 17:10:33 2015'
p194
sS'response'
p195
g61
(S's\xa32\x00\x00<div><table><tr><td style="font-weight:bold;vertical-align:top;">body</td><td style="vertical-align:top;">:</td><td><div>&lt;cStringIO.StringO object at 0x00000000042B0DF8&gt;</div></td></tr><tr><td style="font-weight:bold;vertical-align:top;">cookies</td><td style="vertical-align:top;">:</td><td><div><table><tr><td style="font-weight:bold;vertical-align:top;">session_id_frick</td><td style="vertical-align:top;">:</td><td><div>127.0.0.1-dd355b60-e856-45c9-ae40-fb509e907da0<table><tr><td style="font-weight:bold;vertical-align:top;">comment</td><td style="vertical-align:top;">:</td><td><div></div></td></tr><tr><td style="font-weight:bold;vertical-align:top;">domain</td><td style="vertical-align:top;">:</td><td><div></div></td></tr><tr><td style="font-weight:bold;vertical-align:top;">expires</td><td style="vertical-align:top;">:</td><td><div></div></td></tr><tr><td style="font-weight:bold;vertical-align:top;">httponly</td><td style="vertical-align:top;">:</td><td><div></div></td></tr><tr><td style="font-weight:bold;vertical-align:top;">max-age</td><td style="vertical-align:top;">:</td><td><div></div></td></tr><tr><td style="font-weight:bold;vertical-align:top;">path</td><td style="vertical-align:top;">:</td><td><div>/</div></td></tr><tr><td style="font-weight:bold;vertical-align:top;">secure</td><td style="vertical-align:top;">:</td><td><div></div></td></tr><tr><td style="font-weight:bold;vertical-align:top;">version</td><td style="vertical-align:top;">:</td><td><div></div></td></tr></table></div></td></tr></table></div></td></tr><tr><td style="font-weight:bold;vertical-align:top;">delimiters</td><td style="vertical-align:top;">:</td><td><div><table><tr><td><div>{{</div></td></tr><tr><td><div>}}</div></td></tr></table></div></td></tr><tr><td style="font-weight:bold;vertical-align:top;">files</td><td style="vertical-align:top;">:</td><td><div><table></table></div></td></tr><tr><td style="font-weight:bold;vertical-align:top;">flash</td><td style="vertical-align:top;">:</td><td><div></div></td></tr><tr><td style="font-weight:bold;vertical-align:top;">form_label_separator</td><td style="vertical-align:top;">:</td><td><div>: </div></td></tr><tr><td style="font-weight:bold;vertical-align:top;">formstyle</td><td style="vertical-align:top;">:</td><td><div>table3cols</div></td></tr><tr><td style="font-weight:bold;vertical-align:top;">generic_patterns</td><td style="vertical-align:top;">:</td><td><div><table><tr><td><div>*</div></td></tr></table></div></td></tr><tr><td style="font-weight:bold;vertical-align:top;">google_analytics_id</td><td style="vertical-align:top;">:</td><td><div>None</div></td></tr><tr><td style="font-weight:bold;vertical-align:top;">headers</td><td style="vertical-align:top;">:</td><td><div><table><tr><td style="font-weight:bold;vertical-align:top;">X-Powered-By</td><td style="vertical-align:top;">:</td><td><div>web2py</div></td></tr></table></div></td></tr><tr><td style="font-weight:bold;vertical-align:top;">logo</td><td style="vertical-align:top;">:</td><td><div><a class="brand" href="http://www.web2py.com/"><b>web<span>2</span>py</b>&trade;&nbsp;</a></div></td></tr><tr><td style="font-weight:bold;vertical-align:top;">menu</td><td style="vertical-align:top;">:</td><td><div><table><tr><td><div><table><tr><td><div>Principal</div></td></tr><tr><td><div>False</div></td></tr><tr><td><div>/Frick/default/index</div></td></tr><tr><td><div><table></table></div></td></tr></table></div></td></tr><tr><td><div><table><tr><td><div><span class="highlighted">web2py</span></div></td></tr><tr><td><div>False</div></td></tr><tr><td><div>http://web2py.com</div></td></tr><tr><td><div><table><tr><td><div><table><tr><td><div>Meus sites</div></td></tr><tr><td><div>False</div></td></tr><tr><td><div>/admin/default/site</div></td></tr></table></div></td></tr><tr><td><div><table><tr><td><div>Esta aplica\xc3\xa7\xc3\xa3o</div></td></tr><tr><td><div>False</div></td></tr><tr><td><div>/admin/default/design/Frick</div></td></tr><tr><td><div>[(&lt;lazyT &#x27;Controller&#x27;&gt;, False, &#x27;/admin/default/edit/Frick/controllers/default.py&#x27;), (&lt;lazyT &#x27;View&#x27;&gt;, False, &#x27;/admin/default/edit/Frick/views/default/upload.html&#x27;), (&lt;lazyT &#x27;Layout&#x27;&gt;, False, &#x27;/admin/default/edit/Frick/views/layout.html&#x27;), (&lt;lazyT &#x27;Stylesheet&#x27;&gt;, False, &#x27;/admin/default/edit/Frick/static/css/web2py.css&#x27;), (&lt;lazyT &#x27;DB Model&#x27;&gt;, False, &#x27;/admin/default/edit/Frick/models/db.py&#x27;), (&lt;lazyT &#x27;Menu Model&#x27;&gt;, False, &#x27;/admin/default/edit/Frick/models/menu.py&#x27;), (&lt;lazyT &#x27;Database&#x27;&gt;, False, &#x27;/Frick/appadmin/index&#x27;), (&lt;lazyT &#x27;Errors&#x27;&gt;, False, &#x27;/admin/default/errors/Frick&#x27;), (&lt;lazyT &#x27;About&#x27;&gt;, False, &#x27;/admin/default/about/Frick&#x27;)]</div></td></tr></table></div></td></tr><tr><td><div><table><tr><td><div>web2py.com</div></td></tr><tr><td><div>False</div></td></tr><tr><td><div>http://www.web2py.com</div></td></tr><tr><td><div>[(&lt;lazyT &#x27;Download&#x27;&gt;, False, &#x27;http://www.web2py.com/examples/default/download&#x27;), (&lt;lazyT &#x27;Support&#x27;&gt;, False, &#x27;http://www.web2py.com/examples/default/support&#x27;), (&lt;lazyT &#x27;Demo&#x27;&gt;, False, &#x27;http://web2py.com/demo_admin&#x27;), (&lt;lazyT &#x27;Quick Examples&#x27;&gt;, False, &#x27;http://web2py.com/examples/default/examples&#x27;), (&lt;lazyT &#x27;FAQ&#x27;&gt;, False, &#x27;http://web2py.com/AlterEgo&#x27;), (&lt;lazyT &#x27;Videos&#x27;&gt;, False, &#x27;http://www.web2py.com/examples/default/videos/&#x27;), (&lt;lazyT &#x27;Free Applications&#x27;&gt;, False, &#x27;http://web2py.com/appliances&#x27;), (&lt;lazyT &#x27;Plugins&#x27;&gt;, False, &#x27;http://web2py.com/plugins&#x27;), (&lt;lazyT &#x27;Layouts&#x27;&gt;, False, &#x27;http://web2py.com/layouts&#x27;), (&lt;lazyT &#x27;Recipes&#x27;&gt;, False, &#x27;http://web2pyslices.com/&#x27;), (&lt;lazyT &#x27;Semantic&#x27;&gt;, False, &#x27;http://web2py.com/semantic&#x27;)]</div></td></tr></table></div></td></tr><tr><td><div><table><tr><td><div>Documenta\xc3\xa7\xc3\xa3o</div></td></tr><tr><td><div>False</div></td></tr><tr><td><div>http://www.web2py.com/book</div></td></tr><tr><td><div>[(&lt;lazyT &#x27;Preface&#x27;&gt;, False, &#x27;http://www.web2py.com/book/default/chapter/00&#x27;), (&lt;lazyT &#x27;Introduction&#x27;&gt;, False, &#x27;http://www.web2py.com/book/default/chapter/01&#x27;), (&lt;lazyT &#x27;Python&#x27;&gt;, False, &#x27;http://www.web2py.com/book/default/chapter/02&#x27;), (&lt;lazyT &#x27;Overview&#x27;&gt;, False, &#x27;http://www.web2py.com/book/default/chapter/03&#x27;), (&lt;lazyT &#x27;The Core&#x27;&gt;, False, &#x27;http://www.web2py.com/book/default/chapter/04&#x27;), (&lt;lazyT &#x27;The Views&#x27;&gt;, False, &#x27;http://www.web2py.com/book/default/chapter/05&#x27;), (&lt;lazyT &#x27;Database&#x27;&gt;, False, &#x27;http://www.web2py.com/book/default/chapter/06&#x27;), (&lt;lazyT &#x27;Forms and Validators&#x27;&gt;, False, &#x27;http://www.web2py.com/book/default/chapter/07&#x27;), (&lt;lazyT &#x27;Email and SMS&#x27;&gt;, False, &#x27;http://www.web2py.com/book/default/chapter/08&#x27;), (&lt;lazyT &#x27;Access Control&#x27;&gt;, False, &#x27;http://www.web2py.com/book/default/chapter/09&#x27;), (&lt;lazyT &#x27;Services&#x27;&gt;, False, &#x27;http://www.web2py.com/book/default/chapter/10&#x27;), (&lt;lazyT &#x27;Ajax Recipes&#x27;&gt;, False, &#x27;http://www.web2py.com/book/default/chapter/11&#x27;), (&lt;lazyT &#x27;Components and Plugins&#x27;&gt;, False, &#x27;http://www.web2py.com/book/default/chapter/12&#x27;), (&lt;lazyT &#x27;Deployment Recipes&#x27;&gt;, False, &#x27;http://www.web2py.com/book/default/chapter/13&#x27;), (&lt;lazyT &#x27;Other Recipes&#x27;&gt;, False, &#x27;http://www.web2py.com/book/default/chapter/14&#x27;), (&lt;lazyT &#x27;Buy this book&#x27;&gt;, False, &#x27;http://stores.lulu.com/web2py&#x27;)]</div></td></tr></table></div></td></tr><tr><td><div><table><tr><td><div>Comunidade</div></td></tr><tr><td><div>False</div></td></tr><tr><td><div>None</div></td></tr><tr><td><div>[(&lt;lazyT &#x27;Groups&#x27;&gt;, False, &#x27;http://www.web2py.com/examples/default/usergroups&#x27;), (&lt;lazyT &#x27;Twitter&#x27;&gt;, False, &#x27;http://twitter.com/web2py&#x27;), (&lt;lazyT &#x27;Live Chat&#x27;&gt;, False, &#x27;http://webchat.freenode.net/?channels=web2py&#x27;)]</div></td></tr></table></div></td></tr><tr><td><div><table><tr><td><div>Plugins</div></td></tr><tr><td><div>False</div></td></tr><tr><td><div>None</div></td></tr><tr><td><div>[(&#x27;plugin_wiki&#x27;, False, &#x27;http://web2py.com/examples/default/download&#x27;), (&lt;lazyT &#x27;Other Plugins&#x27;&gt;, False, &#x27;http://web2py.com/plugins&#x27;), (&lt;lazyT &#x27;Layout Plugins&#x27;&gt;, False, &#x27;http://web2py.com/layouts&#x27;)]</div></td></tr></table></div></td></tr></table></div></td></tr></table></div></td></tr></table></div></td></tr><tr><td style="font-weight:bold;vertical-align:top;">meta</td><td style="vertical-align:top;">:</td><td><div><table><tr><td style="font-weight:bold;vertical-align:top;">author</td><td style="vertical-align:top;">:</td><td><div>Your Name &lt;you@example.com&gt;</div></td></tr><tr><td style="font-weight:bold;vertical-align:top;">generator</td><td style="vertical-align:top;">:</td><td><div>Web2py Web Framework</div></td></tr><tr><td style="font-weight:bold;vertical-align:top;">keywords</td><td style="vertical-align:top;">:</td><td><div>web2py, python, framework</div></td></tr></table></div></td></tr><tr><td style="font-weight:bold;vertical-align:top;">models_to_run</td><td style="vertical-align:top;">:</td><td><div><table><tr><td><div>^\\w+\\.py$</div></td></tr><tr><td><div>^default/\\w+\\.py$</div></td></tr><tr><td><div>^default/upload/\\w+\\.py$</div></td></tr></table></div></td></tr><tr><td style="font-weight:bold;vertical-align:top;">postprocessing</td><td style="vertical-align:top;">:</td><td><div><table></table></div></td></tr><tr><td style="font-weight:bold;vertical-align:top;">session_client</td><td style="vertical-align:top;">:</td><td><div>127.0.0.1</div></td></tr><tr><td style="font-weight:bold;vertical-align:top;">session_cookie_compression_level</td><td style="vertical-align:top;">:</td><td><div>None</div></td></tr><tr><td style="font-weight:bold;vertical-align:top;">session_cookie_expires</td><td style="vertical-align:top;">:</td><td><div>None</div></td></tr><tr><td style="font-weight:bold;vertical-align:top;">session_cookie_key</td><td style="vertical-align:top;">:</td><td><div>None</div></td></tr><tr><td style="font-weight:bold;vertical-align:top;">session_data_name</td><td style="vertical-align:top;">:</td><td><div>session_data_frick</div></td></tr><tr><td style="font-weight:bold;vertical-align:top;">session_file</td><td style="vertical-align:top;">:</td><td><div>&lt;open file &#x27;D:\\\\Applications\\\\web2py-master\\\\applications\\\\Frick\\\\sessions\\\\1be\\\\093\\\\127.0.0.1-dd355b60-e856-45c9-ae40-fb509e907da0&#x27;, mode &#x27;rb+&#x27; at 0x0000000008FE4ED0&gt;</div></td></tr><tr><td style="font-weight:bold;vertical-align:top;">session_filename</td><td style="vertical-align:top;">:</td><td><div>D:\\Applications\\web2py-master\\applications\\Frick\\sessions\\127.0.0.1-dd355b60-e856-45c9-ae40-fb509e907da0</div></td></tr><tr><td style="font-weight:bold;vertical-align:top;">session_hash</td><td style="vertical-align:top;">:</td><td><div>90f5d7524b75a44f1f4c965957f26ad7</div></td></tr><tr><td style="font-weight:bold;vertical-align:top;">session_id</td><td style="vertical-align:top;">:</td><td><div>127.0.0.1-dd355b60-e856-45c9-ae40-fb509e907da0</div></td></tr><tr><td style="font-weight:bold;vertical-align:top;">session_id_name</td><td style="vertical-align:top;">:</td><td><div>session_id_frick</div></td></tr><tr><td style="font-weight:bold;vertical-align:top;">session_locked</td><td style="vertical-align:top;">:</td><td><div>True</div></td></tr><tr><td style="font-weight:bold;vertical-align:top;">session_masterapp</td><td style="vertical-align:top;">:</td><td><div>Frick</div></td></tr><tr><td style="font-weight:bold;vertical-align:top;">session_new</td><td style="vertical-align:top;">:</td><td><div>False</div></td></tr><tr><td style="font-weight:bold;vertical-align:top;">session_storage_type</td><td style="vertical-align:top;">:</td><td><div>file</div></td></tr><tr><td style="font-weight:bold;vertical-align:top;">status</td><td style="vertical-align:top;">:</td><td><div>200</div></td></tr><tr><td style="font-weight:bold;vertical-align:top;">subtitle</td><td style="vertical-align:top;">:</td><td><div></div></td></tr><tr><td style="font-weight:bold;vertical-align:top;">title</td><td style="vertical-align:top;">:</td><td><div>Frick</div></td></tr><tr><td style="font-weight:bold;vertical-align:top;">view</td><td style="vertical-align:top;">:</td><td><div>default/upload.html</div></td></tr></table></div>'
tRp196
sS'locals'
p197
(dp198
S's'
S'\'"data:image/png;base64,iVBORw0KGgoAAAANSUhEUgAAA...xpYLsVsw+DXt8P2x/wdFm3wBeW40TQAAAABJRU5ErkJggg=="\''
p199
sssS'traceback'
p200
S'Traceback (most recent call last):\n  File "D:\\Applications\\web2py-master\\gluon\\restricted.py", line 224, in restricted\n    exec ccode in environment\n  File "D:\\Applications\\web2py-master\\applications\\Frick\\controllers/default.py", line 101, in <module>\n  File "D:\\Applications\\web2py-master\\gluon\\globals.py", line 393, in <lambda>\n    self._caller = lambda f: f()\n  File "D:\\Applications\\web2py-master\\applications\\Frick\\controllers/default.py", line 21, in upload\n    fh.write(urllib.unquote(imgData.decode(\'base64\')))\n  File "D:\\Applications\\Python 2.7.8\\lib\\encodings\\base64_codec.py", line 42, in base64_decode\n    output = base64.decodestring(input)\n  File "D:\\Applications\\Python 2.7.8\\lib\\base64.py", line 321, in decodestring\n    return binascii.a2b_base64(s)\nError: Incorrect padding\n'
p201
s.