(dp1
S'output'
p2
S"<type 'exceptions.ValueError'> Unterminated string starting at: line 1 column 1 (char 0)"
p3
sS'layer'
p4
S'D:\\Applications\\web2py-master\\applications\\Frick\\controllers/default.py'
p5
sS'code'
p6
S'# -*- coding: utf-8 -*-\n# this file is released under public domain and you can use without limitations\n\n#########################################################################\n## This is a sample controller\n## - index is the default action of any application\n## - user is required for authentication and authorization\n## - download is for downloading files uploaded in the db (does streaming)\n## - api is an example of Hypermedia API support and access control\n#########################################################################\n\ndef test():\n    return dict(test=\'foi\')\n\t\ndef\toverimages():\n\treturn dict()\n\ndef open_state():\n\timport os\n\timport json\n\tfrom functions import readGroup\n\n\tfilename = json.loads(request.vars[\'filename\'])\n\n\tfile = os.path.join(request.folder, \'static/states/user\', filename + \'.lightboxstate\')\n\n\tfile_contents = []\n\tfilehandler = open(file, "r")\n\tfor line in filehandler:\n\t\tfile_contents.append(line[:-1])\n\tfilehandler.close()\n\t\n\tresult = []\n\tmenu = True\n\tfile_contents = file_contents[1:]\n\t#for element in file_contents[1:]:\n\twhile (len(file_contents) > 3):\n\t\tprint len(file_contents)\n\t\telement = file_contents[0]\n\t\tif (menu):\n\t\t\tif (element == "\\\\menu"):\n\t\t\t\tmenu = False\n\t\t\t\tdel file_contents[0]\n\t\t\telse:\n\t\t\t\tif (element[0] != "\\\\"):\n\t\t\t\t\tresult.append(element)\n\t\t\t\t\tdel file_contents[0]\n\t\t\t\telse:\n\t\t\t\t\tresult.append(readGroup(file_contents, element))\n\n\tresult.append(file_contents[1])\n\t\t\t\t\t\n\treturn T(json.dumps(result))\n\ndef save_state():\n\timport os\n\timport json\n\n\tdata = request.vars[\'data\']\n\tfilename = request.vars[\'filename\']\n\t\n\tfile = os.path.join(request.folder, \'static/states/user/\', filename + \'.lightboxstate\')\n\n\tfilehandler = open(file, "w")\n    #for line in file_contents:\n\tfilehandler.write(json.loads(data))\n\tfilehandler.close()\n\t#filenames = []\n\t#for x in os.listdir(path):\n\t#\tfilenames.append([x[:-14], time.ctime(os.path.getmtime(path + x))])\n\t\n\tpass\n\t#return T(json.dumps(filenames))\n\t\ndef state_list():\n\timport os\n\timport time\n\timport json\n\t\n\tpath = os.path.join(request.folder, \'static/states/user/\')\n\n\tfilenames = []\n\tfor x in os.listdir(path):\n\t\tfilenames.append([x[:-14], time.ctime(os.path.getmtime(path + x))])\n\n\t#result = ""\n\t#for x in filenames:\n\t#\tresult = result + "<tr><td><i class=\\"fa fa-file-o\\"></i>" + str(x[0]) + "</td><td style=\\"text-align: center;\\">" + str(x[1]) + "</td></tr>"\n\t\n\treturn T(json.dumps(filenames))\n\ndef upload():\n    import os\n    import json\n\n    imgData = json.loads(request.vars[\'data\'])\n    imgData = imgData.decode(\'base64\')\n\n    infofile = os.path.join(request.folder, \'static/images/user\', \'info.txt\')\n\n    file_contents = []\n\n    filehandler = open(infofile, "r")\n    for line in filehandler:\n        file_contents.append(line)\n    filehandler.close()\n\n    index = int(file_contents[0])\n    file_contents[0] = str(index + 1) + \'\\n\'\n\n    imagefile = os.path.join(request.folder, \'static/images/user\', str(index) + \'.png\')\n\n    filehandler = open(imagefile, "wb")\n    filehandler.write(imgData)\n    filehandler.close()\n\n    file_contents.append(str(index) + \'\\n\')\n\n    filehandler = open(infofile, "w")\n    for line in file_contents:\n        filehandler.write(line)\n    filehandler.close()\n\n    return T(str(index) + \'.png\')\n\ndef image_upload_test():\n    return dict()\n\ndef fabric_test():\n    return dict()\n\ndef kinetic_test():\n    return dict()\n\ndef lightbox():\n    import os\n    import json\n\n    infofile = os.path.join(request.folder, \'static/images/user\', \'info.txt\')\n\n    file_contents = []\n\n    filehandler = open(infofile, "r")\n    for line in filehandler:\n        file_contents.append(line[:-1] + \'.png\')\n    filehandler.close()\n\n    return dict(image_list=\' \'.join(file_contents[1:]))\n\ndef index():\n    """\n    example action using the internationalization operator T and flash\n    rendered by views/default/index.html or views/generic.html\n\n    if you need a simple wiki simply replace the two lines below with:\n    return auth.wiki()\n    """\n    response.flash = T("Welcome to web2py!")\n    return dict(message=T(\'Hello World\'))\n\n\ndef user():\n    """\n    exposes:\n    http://..../[app]/default/user/login\n    http://..../[app]/default/user/logout\n    http://..../[app]/default/user/register\n    http://..../[app]/default/user/profile\n    http://..../[app]/default/user/retrieve_password\n    http://..../[app]/default/user/change_password\n    http://..../[app]/default/user/manage_users (requires membership in\n    use @auth.requires_login()\n        @auth.requires_membership(\'group name\')\n        @auth.requires_permission(\'read\',\'table name\',record_id)\n    to decorate functions that need access control\n    """\n    return dict(form=auth())\n\n\n@cache.action()\ndef download():\n    """\n    allows downloading of uploaded files\n    http://..../[app]/default/download/[filename]\n    """\n    return response.download(request, db)\n\n\ndef call():\n    """\n    exposes services. for example:\n    http://..../[app]/default/call/jsonrpc\n    decorate with @services.jsonrpc the functions to expose\n    supports xml, json, xmlrpc, jsonrpc, amfrpc, rss, csv\n    """\n    return service()\n\n\n@auth.requires_login() \ndef api():\n    """\n    this is example of API with access control\n    WEB2PY provides Hypermedia API (Collection+JSON) Experimental\n    """\n    from gluon.contrib.hypermedia import Collection\n    rules = {\n        \'<tablename>\': {\'GET\':{},\'POST\':{},\'PUT\':{},\'DELETE\':{}},\n        }\n    return Collection(db).process(request,response,rules)\n\nresponse._vars=response._caller(save_state)\n'
p7
sS'snapshot'
p8
(dp9
S'exception'
p10
(dp11
S'__hash__'
p12
S"<method-wrapper '__hash__' of exceptions.ValueError object>"
p13
sS'__setattr__'
p14
S"<method-wrapper '__setattr__' of exceptions.ValueError object>"
p15
sS'__reduce_ex__'
p16
S'<built-in method __reduce_ex__ of exceptions.ValueError object>'
p17
sS'__getslice__'
p18
S"<method-wrapper '__getslice__' of exceptions.ValueError object>"
p19
sS'__getitem__'
p20
S"<method-wrapper '__getitem__' of exceptions.ValueError object>"
p21
sS'__setstate__'
p22
S'<built-in method __setstate__ of exceptions.ValueError object>'
p23
sS'__reduce__'
p24
S'<built-in method __reduce__ of exceptions.ValueError object>'
p25
sS'__str__'
p26
S"<method-wrapper '__str__' of exceptions.ValueError object>"
p27
sS'__format__'
p28
S'<built-in method __format__ of exceptions.ValueError object>'
p29
sS'__getattribute__'
p30
S"<method-wrapper '__getattribute__' of exceptions.ValueError object>"
p31
sS'__class__'
p32
S"<type 'exceptions.ValueError'>"
p33
sS'__unicode__'
p34
S'<built-in method __unicode__ of exceptions.ValueError object>'
p35
sS'__delattr__'
p36
S"<method-wrapper '__delattr__' of exceptions.ValueError object>"
p37
sS'__subclasshook__'
p38
S'<built-in method __subclasshook__ of type object>'
p39
sS'__repr__'
p40
S"<method-wrapper '__repr__' of exceptions.ValueError object>"
p41
sS'__dict__'
p42
S'{}'
p43
sS'args'
p44
S"('Unterminated string starting at: line 1 column 1 (char 0)',)"
p45
sS'__sizeof__'
p46
S'<built-in method __sizeof__ of exceptions.ValueError object>'
p47
sS'__doc__'
p48
S"'Inappropriate argument value (of correct type).'"
p49
sS'__init__'
p50
S"<method-wrapper '__init__' of exceptions.ValueError object>"
p51
sS'__new__'
p52
S'<built-in method __new__ of type object>'
p53
ssS'evalue'
p54
S'Unterminated string starting at: line 1 column 1 (char 0)'
p55
sS'request'
p56
cgluon.html
XML_unpickle
p57
(S'sin\x00\x00<div><table><tr><td style="font-weight:bold;vertical-align:top;">ajax</td><td style="vertical-align:top;">:</td><td><div>True</div></td></tr><tr><td style="font-weight:bold;vertical-align:top;">application</td><td style="vertical-align:top;">:</td><td><div>Frick</div></td></tr><tr><td style="font-weight:bold;vertical-align:top;">args</td><td style="vertical-align:top;">:</td><td><div><table></table></div></td></tr><tr><td style="font-weight:bold;vertical-align:top;">cid</td><td style="vertical-align:top;">:</td><td><div>None</div></td></tr><tr><td style="font-weight:bold;vertical-align:top;">client</td><td style="vertical-align:top;">:</td><td><div>127.0.0.1</div></td></tr><tr><td style="font-weight:bold;vertical-align:top;">controller</td><td style="vertical-align:top;">:</td><td><div>default</div></td></tr><tr><td style="font-weight:bold;vertical-align:top;">cookies</td><td style="vertical-align:top;">:</td><td><div><table><tr><td style="font-weight:bold;vertical-align:top;">session_id_admin</td><td style="vertical-align:top;">:</td><td><div>127.0.0.1-24e587db-3441-4955-b294-4853a3d5bf45<table><tr><td style="font-weight:bold;vertical-align:top;">comment</td><td style="vertical-align:top;">:</td><td><div></div></td></tr><tr><td style="font-weight:bold;vertical-align:top;">domain</td><td style="vertical-align:top;">:</td><td><div></div></td></tr><tr><td style="font-weight:bold;vertical-align:top;">expires</td><td style="vertical-align:top;">:</td><td><div></div></td></tr><tr><td style="font-weight:bold;vertical-align:top;">httponly</td><td style="vertical-align:top;">:</td><td><div></div></td></tr><tr><td style="font-weight:bold;vertical-align:top;">max-age</td><td style="vertical-align:top;">:</td><td><div></div></td></tr><tr><td style="font-weight:bold;vertical-align:top;">path</td><td style="vertical-align:top;">:</td><td><div></div></td></tr><tr><td style="font-weight:bold;vertical-align:top;">secure</td><td style="vertical-align:top;">:</td><td><div></div></td></tr><tr><td style="font-weight:bold;vertical-align:top;">version</td><td style="vertical-align:top;">:</td><td><div></div></td></tr></table></div></td></tr><tr><td style="font-weight:bold;vertical-align:top;">session_id_examples</td><td style="vertical-align:top;">:</td><td><div>True<table><tr><td style="font-weight:bold;vertical-align:top;">comment</td><td style="vertical-align:top;">:</td><td><div></div></td></tr><tr><td style="font-weight:bold;vertical-align:top;">domain</td><td style="vertical-align:top;">:</td><td><div></div></td></tr><tr><td style="font-weight:bold;vertical-align:top;">expires</td><td style="vertical-align:top;">:</td><td><div></div></td></tr><tr><td style="font-weight:bold;vertical-align:top;">httponly</td><td style="vertical-align:top;">:</td><td><div></div></td></tr><tr><td style="font-weight:bold;vertical-align:top;">max-age</td><td style="vertical-align:top;">:</td><td><div></div></td></tr><tr><td style="font-weight:bold;vertical-align:top;">path</td><td style="vertical-align:top;">:</td><td><div></div></td></tr><tr><td style="font-weight:bold;vertical-align:top;">secure</td><td style="vertical-align:top;">:</td><td><div></div></td></tr><tr><td style="font-weight:bold;vertical-align:top;">version</td><td style="vertical-align:top;">:</td><td><div></div></td></tr></table></div></td></tr><tr><td style="font-weight:bold;vertical-align:top;">session_id_frick</td><td style="vertical-align:top;">:</td><td><div>127.0.0.1-dd355b60-e856-45c9-ae40-fb509e907da0<table><tr><td style="font-weight:bold;vertical-align:top;">comment</td><td style="vertical-align:top;">:</td><td><div></div></td></tr><tr><td style="font-weight:bold;vertical-align:top;">domain</td><td style="vertical-align:top;">:</td><td><div></div></td></tr><tr><td style="font-weight:bold;vertical-align:top;">expires</td><td style="vertical-align:top;">:</td><td><div></div></td></tr><tr><td style="font-weight:bold;vertical-align:top;">httponly</td><td style="vertical-align:top;">:</td><td><div></div></td></tr><tr><td style="font-weight:bold;vertical-align:top;">max-age</td><td style="vertical-align:top;">:</td><td><div></div></td></tr><tr><td style="font-weight:bold;vertical-align:top;">path</td><td style="vertical-align:top;">:</td><td><div></div></td></tr><tr><td style="font-weight:bold;vertical-align:top;">secure</td><td style="vertical-align:top;">:</td><td><div></div></td></tr><tr><td style="font-weight:bold;vertical-align:top;">version</td><td style="vertical-align:top;">:</td><td><div></div></td></tr></table></div></td></tr><tr><td style="font-weight:bold;vertical-align:top;">session_id_timesup</td><td style="vertical-align:top;">:</td><td><div>127.0.0.1-a288b4b6-344b-4bff-ad57-3672e4dfca2f<table><tr><td style="font-weight:bold;vertical-align:top;">comment</td><td style="vertical-align:top;">:</td><td><div></div></td></tr><tr><td style="font-weight:bold;vertical-align:top;">domain</td><td style="vertical-align:top;">:</td><td><div></div></td></tr><tr><td style="font-weight:bold;vertical-align:top;">expires</td><td style="vertical-align:top;">:</td><td><div></div></td></tr><tr><td style="font-weight:bold;vertical-align:top;">httponly</td><td style="vertical-align:top;">:</td><td><div></div></td></tr><tr><td style="font-weight:bold;vertical-align:top;">max-age</td><td style="vertical-align:top;">:</td><td><div></div></td></tr><tr><td style="font-weight:bold;vertical-align:top;">path</td><td style="vertical-align:top;">:</td><td><div></div></td></tr><tr><td style="font-weight:bold;vertical-align:top;">secure</td><td style="vertical-align:top;">:</td><td><div></div></td></tr><tr><td style="font-weight:bold;vertical-align:top;">version</td><td style="vertical-align:top;">:</td><td><div></div></td></tr></table></div></td></tr><tr><td style="font-weight:bold;vertical-align:top;">session_id_welcome</td><td style="vertical-align:top;">:</td><td><div>127.0.0.1-81734e71-5620-4b9f-9029-bc00c1994e00<table><tr><td style="font-weight:bold;vertical-align:top;">comment</td><td style="vertical-align:top;">:</td><td><div></div></td></tr><tr><td style="font-weight:bold;vertical-align:top;">domain</td><td style="vertical-align:top;">:</td><td><div></div></td></tr><tr><td style="font-weight:bold;vertical-align:top;">expires</td><td style="vertical-align:top;">:</td><td><div></div></td></tr><tr><td style="font-weight:bold;vertical-align:top;">httponly</td><td style="vertical-align:top;">:</td><td><div></div></td></tr><tr><td style="font-weight:bold;vertical-align:top;">max-age</td><td style="vertical-align:top;">:</td><td><div></div></td></tr><tr><td style="font-weight:bold;vertical-align:top;">path</td><td style="vertical-align:top;">:</td><td><div></div></td></tr><tr><td style="font-weight:bold;vertical-align:top;">secure</td><td style="vertical-align:top;">:</td><td><div></div></td></tr><tr><td style="font-weight:bold;vertical-align:top;">version</td><td style="vertical-align:top;">:</td><td><div></div></td></tr></table></div></td></tr></table></div></td></tr><tr><td style="font-weight:bold;vertical-align:top;">env</td><td style="vertical-align:top;">:</td><td><div><table><tr><td style="font-weight:bold;vertical-align:top;">CONTENT_LENGTH</td><td style="vertical-align:top;">:</td><td><div>148854</div></td></tr><tr><td style="font-weight:bold;vertical-align:top;">CONTENT_TYPE</td><td style="vertical-align:top;">:</td><td><div>application/x-www-form-urlencoded; charset=UTF-8</div></td></tr><tr><td style="font-weight:bold;vertical-align:top;">HTTP_ACCEPT</td><td style="vertical-align:top;">:</td><td><div>*/*</div></td></tr><tr><td style="font-weight:bold;vertical-align:top;">HTTP_ACCEPT_ENCODING</td><td style="vertical-align:top;">:</td><td><div>gzip, deflate</div></td></tr><tr><td style="font-weight:bold;vertical-align:top;">HTTP_ACCEPT_LANGUAGE</td><td style="vertical-align:top;">:</td><td><div>pt-BR,pt;q=0.8,en-US;q=0.6,en;q=0.4</div></td></tr><tr><td style="font-weight:bold;vertical-align:top;">HTTP_CONNECTION</td><td style="vertical-align:top;">:</td><td><div>keep-alive</div></td></tr><tr><td style="font-weight:bold;vertical-align:top;">HTTP_CONTENT_LENGTH</td><td style="vertical-align:top;">:</td><td><div>148854</div></td></tr><tr><td style="font-weight:bold;vertical-align:top;">HTTP_CONTENT_TYPE</td><td style="vertical-align:top;">:</td><td><div>application/x-www-form-urlencoded; charset=UTF-8</div></td></tr><tr><td style="font-weight:bold;vertical-align:top;">HTTP_COOKIE</td><td style="vertical-align:top;">:</td><td><div>session_id_timesup=127.0.0.1-a288b4b6-344b-4bff-ad57-3672e4dfca2f; session_id_examples=True; session_id_admin=127.0.0.1-24e587db-3441-4955-b294-4853a3d5bf45; session_id_welcome=127.0.0.1-81734e71-5620-4b9f-9029-bc00c1994e00; session_id_frick=127.0.0.1-dd355b60-e856-45c9-ae40-fb509e907da0</div></td></tr><tr><td style="font-weight:bold;vertical-align:top;">HTTP_HOST</td><td style="vertical-align:top;">:</td><td><div>127.0.0.1:8000</div></td></tr><tr><td style="font-weight:bold;vertical-align:top;">HTTP_ORIGIN</td><td style="vertical-align:top;">:</td><td><div>http://127.0.0.1:8000</div></td></tr><tr><td style="font-weight:bold;vertical-align:top;">HTTP_REFERER</td><td style="vertical-align:top;">:</td><td><div>http://127.0.0.1:8000/Frick/default/lightbox</div></td></tr><tr><td style="font-weight:bold;vertical-align:top;">HTTP_USER_AGENT</td><td style="vertical-align:top;">:</td><td><div>Mozilla/5.0 (Windows NT 6.3; WOW64) AppleWebKit/537.36 (KHTML, like Gecko) Chrome/41.0.2272.89 Safari/537.36</div></td></tr><tr><td style="font-weight:bold;vertical-align:top;">HTTP_X_REQUESTED_WITH</td><td style="vertical-align:top;">:</td><td><div>XMLHttpRequest</div></td></tr><tr><td style="font-weight:bold;vertical-align:top;">PATH_INFO</td><td style="vertical-align:top;">:</td><td><div>/Frick/default/save_state</div></td></tr><tr><td style="font-weight:bold;vertical-align:top;">QUERY_STRING</td><td style="vertical-align:top;">:</td><td><div></div></td></tr><tr><td style="font-weight:bold;vertical-align:top;">REMOTE_ADDR</td><td style="vertical-align:top;">:</td><td><div>127.0.0.1</div></td></tr><tr><td style="font-weight:bold;vertical-align:top;">REMOTE_PORT</td><td style="vertical-align:top;">:</td><td><div>50088</div></td></tr><tr><td style="font-weight:bold;vertical-align:top;">REQUEST_METHOD</td><td style="vertical-align:top;">:</td><td><div>POST</div></td></tr><tr><td style="font-weight:bold;vertical-align:top;">SCRIPT_NAME</td><td style="vertical-align:top;">:</td><td><div></div></td></tr><tr><td style="font-weight:bold;vertical-align:top;">SERVER_NAME</td><td style="vertical-align:top;">:</td><td><div>Apollo</div></td></tr><tr><td style="font-weight:bold;vertical-align:top;">SERVER_PORT</td><td style="vertical-align:top;">:</td><td><div>8000</div></td></tr><tr><td style="font-weight:bold;vertical-align:top;">SERVER_PROTOCOL</td><td style="vertical-align:top;">:</td><td><div>HTTP/1.1</div></td></tr><tr><td style="font-weight:bold;vertical-align:top;">SERVER_SOFTWARE</td><td style="vertical-align:top;">:</td><td><div>Rocket 1.2.6</div></td></tr><tr><td style="font-weight:bold;vertical-align:top;">app_folders</td><td style="vertical-align:top;">:</td><td><div>set([&#x27;D:\\\\Applications\\\\web2py-master\\\\applications\\\\welcome\\\\&#x27;, &#x27;D:\\\\Applications\\\\web2py-master\\\\applications\\\\Frick\\\\&#x27;])</div></td></tr><tr><td style="font-weight:bold;vertical-align:top;">applications_parent</td><td style="vertical-align:top;">:</td><td><div>D:\\Applications\\web2py-master</div></td></tr><tr><td style="font-weight:bold;vertical-align:top;">cmd_args</td><td style="vertical-align:top;">:</td><td><div><table></table></div></td></tr><tr><td style="font-weight:bold;vertical-align:top;">cmd_options</td><td style="vertical-align:top;">:</td><td><div>&lt;Values at 0x368c608: {&#x27;verbose&#x27;: False, &#x27;ip&#x27;: &#x27;127.0.0.1&#x27;, &#x27;debuglevel&#x27;: 30, &#x27;with_scheduler&#x27;: False, &#x27;ips&#x27;: [&#x27;192.168.56.1&#x27;, &#x27;fe80::94a5:5e73:d9b5:ded3%3&#x27;, &#x27;192.168.1.4&#x27;, &#x27;fe80::2807:4e7f:d1b2:47d0%13&#x27;], &#x27;shutdown_timeout&#x27;: 5, &#x27;taskbar&#x27;: False, &#x27;with_coverage&#x27;: False, &#x27;scheduler_groups&#x27;: None, &#x27;port&#x27;: 8000, &#x27;maxthreads&#x27;: None, &#x27;softcron&#x27;: False, &#x27;server_name&#x27;: &#x27;Apollo&#x27;, &#x27;bpython&#x27;: False, &#x27;nogui&#x27;: False, &#x27;pid_filename&#x27;: &#x27;httpserver.pid&#x27;, &#x27;extcron&#x27;: False, &#x27;runcron&#x27;: False, &#x27;run_system_tests&#x27;: False, &#x27;test&#x27;: None, &#x27;folder&#x27;: &#x27;D:\\\\Applications\\\\web2py-master&#x27;, &#x27;config&#x27;: &#x27;&#x27;, &#x27;minthreads&#x27;: None, &#x27;shell&#x27;: None, &#x27;run&#x27;: &#x27;&#x27;, &#x27;log_filename&#x27;: &#x27;httpserver.log&#x27;, &#x27;profiler_dir&#x27;: None, &#x27;args&#x27;: [&#x27;&#x27;], &#x27;socket_timeout&#x27;: 5, &#x27;ssl_ca_certificate&#x27;: None, &#x27;scheduler&#x27;: None, &#x27;interfaces&#x27;: None, &#x27;ssl_private_key&#x27;: &#x27;&#x27;, &#x27;gae&#x27;: None, &#x27;password&#x27;: &#x27;&lt;ask&gt;&#x27;, &#x27;request_queue_size&#x27;: 5, &#x27;ssl_certificate&#x27;: &#x27;&#x27;, &#x27;cronjob&#x27;: False, &#x27;numthreads&#x27;: None, &#x27;quiet&#x27;: False, &#x27;import_models&#x27;: False, &#x27;timeout&#x27;: 10, &#x27;plain&#x27;: False, &#x27;nobanner&#x27;: False}&gt;</div></td></tr><tr><td style="font-weight:bold;vertical-align:top;">content_length</td><td style="vertical-align:top;">:</td><td><div>148854</div></td></tr><tr><td style="font-weight:bold;vertical-align:top;">content_type</td><td style="vertical-align:top;">:</td><td><div>application/x-www-form-urlencoded; charset=UTF-8</div></td></tr><tr><td style="font-weight:bold;vertical-align:top;">db_sessions</td><td style="vertical-align:top;">:</td><td><div>set([])</div></td></tr><tr><td style="font-weight:bold;vertical-align:top;">debugging</td><td style="vertical-align:top;">:</td><td><div>False</div></td></tr><tr><td style="font-weight:bold;vertical-align:top;">gluon_parent</td><td style="vertical-align:top;">:</td><td><div>D:\\Applications\\web2py-master</div></td></tr><tr><td style="font-weight:bold;vertical-align:top;">http_accept</td><td style="vertical-align:top;">:</td><td><div>*/*</div></td></tr><tr><td style="font-weight:bold;vertical-align:top;">http_accept_encoding</td><td style="vertical-align:top;">:</td><td><div>gzip, deflate</div></td></tr><tr><td style="font-weight:bold;vertical-align:top;">http_accept_language</td><td style="vertical-align:top;">:</td><td><div>pt-BR,pt;q=0.8,en-US;q=0.6,en;q=0.4</div></td></tr><tr><td style="font-weight:bold;vertical-align:top;">http_connection</td><td style="vertical-align:top;">:</td><td><div>keep-alive</div></td></tr><tr><td style="font-weight:bold;vertical-align:top;">http_content_length</td><td style="vertical-align:top;">:</td><td><div>148854</div></td></tr><tr><td style="font-weight:bold;vertical-align:top;">http_content_type</td><td style="vertical-align:top;">:</td><td><div>application/x-www-form-urlencoded; charset=UTF-8</div></td></tr><tr><td style="font-weight:bold;vertical-align:top;">http_cookie</td><td style="vertical-align:top;">:</td><td><div>session_id_timesup=127.0.0.1-a288b4b6-344b-4bff-ad57-3672e4dfca2f; session_id_examples=True; session_id_admin=127.0.0.1-24e587db-3441-4955-b294-4853a3d5bf45; session_id_welcome=127.0.0.1-81734e71-5620-4b9f-9029-bc00c1994e00; session_id_frick=127.0.0.1-dd355b60-e856-45c9-ae40-fb509e907da0</div></td></tr><tr><td style="font-weight:bold;vertical-align:top;">http_host</td><td style="vertical-align:top;">:</td><td><div>127.0.0.1:8000</div></td></tr><tr><td style="font-weight:bold;vertical-align:top;">http_origin</td><td style="vertical-align:top;">:</td><td><div>http://127.0.0.1:8000</div></td></tr><tr><td style="font-weight:bold;vertical-align:top;">http_referer</td><td style="vertical-align:top;">:</td><td><div>http://127.0.0.1:8000/Frick/default/lightbox</div></td></tr><tr><td style="font-weight:bold;vertical-align:top;">http_user_agent</td><td style="vertical-align:top;">:</td><td><div>Mozilla/5.0 (Windows NT 6.3; WOW64) AppleWebKit/537.36 (KHTML, like Gecko) Chrome/41.0.2272.89 Safari/537.36</div></td></tr><tr><td style="font-weight:bold;vertical-align:top;">http_x_requested_with</td><td style="vertical-align:top;">:</td><td><div>XMLHttpRequest</div></td></tr><tr><td style="font-weight:bold;vertical-align:top;">is_jython</td><td style="vertical-align:top;">:</td><td><div>False</div></td></tr><tr><td style="font-weight:bold;vertical-align:top;">is_pypy</td><td style="vertical-align:top;">:</td><td><div>False</div></td></tr><tr><td style="font-weight:bold;vertical-align:top;">is_source</td><td style="vertical-align:top;">:</td><td><div>True</div></td></tr><tr><td style="font-weight:bold;vertical-align:top;">local_hosts</td><td style="vertical-align:top;">:</td><td><div><table><tr><td><div>fe80::94a5:5e73:d9b5:ded3%3</div></td></tr><tr><td><div>::ffff:127.0.0.1</div></td></tr><tr><td><div>::1</div></td></tr><tr><td><div>192.168.1.4</div></td></tr><tr><td><div>192.168.56.1</div></td></tr><tr><td><div>Apollo</div></td></tr><tr><td><div>127.0.0.1</div></td></tr><tr><td><div>fe80::2807:4e7f:d1b2:47d0%13</div></td></tr></table></div></td></tr><tr><td style="font-weight:bold;vertical-align:top;">path_info</td><td style="vertical-align:top;">:</td><td><div>/Frick/default/save_state</div></td></tr><tr><td style="font-weight:bold;vertical-align:top;">query_string</td><td style="vertical-align:top;">:</td><td><div></div></td></tr><tr><td style="font-weight:bold;vertical-align:top;">remote_addr</td><td style="vertical-align:top;">:</td><td><div>127.0.0.1</div></td></tr><tr><td style="font-weight:bold;vertical-align:top;">remote_port</td><td style="vertical-align:top;">:</td><td><div>50088</div></td></tr><tr><td style="font-weight:bold;vertical-align:top;">request_method</td><td style="vertical-align:top;">:</td><td><div>POST</div></td></tr><tr><td style="font-weight:bold;vertical-align:top;">request_uri</td><td style="vertical-align:top;">:</td><td><div>/Frick/default/save_state</div></td></tr><tr><td style="font-weight:bold;vertical-align:top;">script_name</td><td style="vertical-align:top;">:</td><td><div></div></td></tr><tr><td style="font-weight:bold;vertical-align:top;">server_name</td><td style="vertical-align:top;">:</td><td><div>Apollo</div></td></tr><tr><td style="font-weight:bold;vertical-align:top;">server_port</td><td style="vertical-align:top;">:</td><td><div>8000</div></td></tr><tr><td style="font-weight:bold;vertical-align:top;">server_protocol</td><td style="vertical-align:top;">:</td><td><div>HTTP/1.1</div></td></tr><tr><td style="font-weight:bold;vertical-align:top;">server_software</td><td style="vertical-align:top;">:</td><td><div>Rocket 1.2.6</div></td></tr><tr><td style="font-weight:bold;vertical-align:top;">web2py_path</td><td style="vertical-align:top;">:</td><td><div>D:\\Applications\\web2py-master</div></td></tr><tr><td style="font-weight:bold;vertical-align:top;">web2py_version</td><td style="vertical-align:top;">:</td><td><div>2.9.12-stable+timestamp.2015.01.17.00.07.04</div></td></tr><tr><td style="font-weight:bold;vertical-align:top;">wsgi.errors</td><td style="vertical-align:top;">:</td><td><div>&lt;open file &#x27;&lt;stderr&gt;&#x27;, mode &#x27;w&#x27; at 0x0000000001BFB150&gt;</div></td></tr><tr><td style="font-weight:bold;vertical-align:top;">wsgi.file_wrapper</td><td style="vertical-align:top;">:</td><td><div>&lt;class wsgiref.util.FileWrapper at 0x00000000032A9528&gt;</div></td></tr><tr><td style="font-weight:bold;vertical-align:top;">wsgi.input</td><td style="vertical-align:top;">:</td><td><div>&lt;socket._fileobject object at 0x0000000003F59D68&gt;</div></td></tr><tr><td style="font-weight:bold;vertical-align:top;">wsgi.multiprocess</td><td style="vertical-align:top;">:</td><td><div>False</div></td></tr><tr><td style="font-weight:bold;vertical-align:top;">wsgi.multithread</td><td style="vertical-align:top;">:</td><td><div>True</div></td></tr><tr><td style="font-weight:bold;vertical-align:top;">wsgi.run_once</td><td style="vertical-align:top;">:</td><td><div>False</div></td></tr><tr><td style="font-weight:bold;vertical-align:top;">wsgi.url_scheme</td><td style="vertical-align:top;">:</td><td><div>http</div></td></tr><tr><td style="font-weight:bold;vertical-align:top;">wsgi.version</td><td style="vertical-align:top;">:</td><td><div><table><tr><td><div>1</div></td></tr><tr><td><div>0</div></td></tr></table></div></td></tr><tr><td style="font-weight:bold;vertical-align:top;">wsgi_errors</td><td style="vertical-align:top;">:</td><td><div>&lt;open file &#x27;&lt;stderr&gt;&#x27;, mode &#x27;w&#x27; at 0x0000000001BFB150&gt;</div></td></tr><tr><td style="font-weight:bold;vertical-align:top;">wsgi_file_wrapper</td><td style="vertical-align:top;">:</td><td><div>&lt;class wsgiref.util.FileWrapper at 0x00000000032A9528&gt;</div></td></tr><tr><td style="font-weight:bold;vertical-align:top;">wsgi_input</td><td style="vertical-align:top;">:</td><td><div>&lt;socket._fileobject object at 0x0000000003F59D68&gt;</div></td></tr><tr><td style="font-weight:bold;vertical-align:top;">wsgi_multiprocess</td><td style="vertical-align:top;">:</td><td><div>False</div></td></tr><tr><td style="font-weight:bold;vertical-align:top;">wsgi_multithread</td><td style="vertical-align:top;">:</td><td><div>True</div></td></tr><tr><td style="font-weight:bold;vertical-align:top;">wsgi_run_once</td><td style="vertical-align:top;">:</td><td><div>False</div></td></tr><tr><td style="font-weight:bold;vertical-align:top;">wsgi_url_scheme</td><td style="vertical-align:top;">:</td><td><div>http</div></td></tr><tr><td style="font-weight:bold;vertical-align:top;">wsgi_version</td><td style="vertical-align:top;">:</td><td><div><table><tr><td><div>1</div></td></tr><tr><td><div>0</div></td></tr></table></div></td></tr></table></div></td></tr><tr><td style="font-weight:bold;vertical-align:top;">extension</td><td style="vertical-align:top;">:</td><td><div>html</div></td></tr><tr><td style="font-weight:bold;vertical-align:top;">folder</td><td style="vertical-align:top;">:</td><td><div>D:\\Applications\\web2py-master\\applications\\Frick\\</div></td></tr><tr><td style="font-weight:bold;vertical-align:top;">function</td><td style="vertical-align:top;">:</td><td><div>save_state</div></td></tr><tr><td style="font-weight:bold;vertical-align:top;">global_settings</td><td style="vertical-align:top;">:</td><td><div><table><tr><td style="font-weight:bold;vertical-align:top;">app_folders</td><td style="vertical-align:top;">:</td><td><div>set([&#x27;D:\\\\Applications\\\\web2py-master\\\\applications\\\\welcome\\\\&#x27;, &#x27;D:\\\\Applications\\\\web2py-master\\\\applications\\\\Frick\\\\&#x27;])</div></td></tr><tr><td style="font-weight:bold;vertical-align:top;">applications_parent</td><td style="vertical-align:top;">:</td><td><div>D:\\Applications\\web2py-master</div></td></tr><tr><td style="font-weight:bold;vertical-align:top;">cmd_args</td><td style="vertical-align:top;">:</td><td><div><table></table></div></td></tr><tr><td style="font-weight:bold;vertical-align:top;">cmd_options</td><td style="vertical-align:top;">:</td><td><div>&lt;Values at 0x368c608: {&#x27;verbose&#x27;: False, &#x27;ip&#x27;: &#x27;127.0.0.1&#x27;, &#x27;debuglevel&#x27;: 30, &#x27;with_scheduler&#x27;: False, &#x27;ips&#x27;: [&#x27;192.168.56.1&#x27;, &#x27;fe80::94a5:5e73:d9b5:ded3%3&#x27;, &#x27;192.168.1.4&#x27;, &#x27;fe80::2807:4e7f:d1b2:47d0%13&#x27;], &#x27;shutdown_timeout&#x27;: 5, &#x27;taskbar&#x27;: False, &#x27;with_coverage&#x27;: False, &#x27;scheduler_groups&#x27;: None, &#x27;port&#x27;: 8000, &#x27;maxthreads&#x27;: None, &#x27;softcron&#x27;: False, &#x27;server_name&#x27;: &#x27;Apollo&#x27;, &#x27;bpython&#x27;: False, &#x27;nogui&#x27;: False, &#x27;pid_filename&#x27;: &#x27;httpserver.pid&#x27;, &#x27;extcron&#x27;: False, &#x27;runcron&#x27;: False, &#x27;run_system_tests&#x27;: False, &#x27;test&#x27;: None, &#x27;folder&#x27;: &#x27;D:\\\\Applications\\\\web2py-master&#x27;, &#x27;config&#x27;: &#x27;&#x27;, &#x27;minthreads&#x27;: None, &#x27;shell&#x27;: None, &#x27;run&#x27;: &#x27;&#x27;, &#x27;log_filename&#x27;: &#x27;httpserver.log&#x27;, &#x27;profiler_dir&#x27;: None, &#x27;args&#x27;: [&#x27;&#x27;], &#x27;socket_timeout&#x27;: 5, &#x27;ssl_ca_certificate&#x27;: None, &#x27;scheduler&#x27;: None, &#x27;interfaces&#x27;: None, &#x27;ssl_private_key&#x27;: &#x27;&#x27;, &#x27;gae&#x27;: None, &#x27;password&#x27;: &#x27;&lt;ask&gt;&#x27;, &#x27;request_queue_size&#x27;: 5, &#x27;ssl_certificate&#x27;: &#x27;&#x27;, &#x27;cronjob&#x27;: False, &#x27;numthreads&#x27;: None, &#x27;quiet&#x27;: False, &#x27;import_models&#x27;: False, &#x27;timeout&#x27;: 10, &#x27;plain&#x27;: False, &#x27;nobanner&#x27;: False}&gt;</div></td></tr><tr><td style="font-weight:bold;vertical-align:top;">db_sessions</td><td style="vertical-align:top;">:</td><td><div>set([])</div></td></tr><tr><td style="font-weight:bold;vertical-align:top;">debugging</td><td style="vertical-align:top;">:</td><td><div>False</div></td></tr><tr><td style="font-weight:bold;vertical-align:top;">gluon_parent</td><td style="vertical-align:top;">:</td><td><div>D:\\Applications\\web2py-master</div></td></tr><tr><td style="font-weight:bold;vertical-align:top;">is_jython</td><td style="vertical-align:top;">:</td><td><div>False</div></td></tr><tr><td style="font-weight:bold;vertical-align:top;">is_pypy</td><td style="vertical-align:top;">:</td><td><div>False</div></td></tr><tr><td style="font-weight:bold;vertical-align:top;">is_source</td><td style="vertical-align:top;">:</td><td><div>True</div></td></tr><tr><td style="font-weight:bold;vertical-align:top;">local_hosts</td><td style="vertical-align:top;">:</td><td><div><table><tr><td><div>fe80::94a5:5e73:d9b5:ded3%3</div></td></tr><tr><td><div>::ffff:127.0.0.1</div></td></tr><tr><td><div>::1</div></td></tr><tr><td><div>192.168.1.4</div></td></tr><tr><td><div>192.168.56.1</div></td></tr><tr><td><div>Apollo</div></td></tr><tr><td><div>127.0.0.1</div></td></tr><tr><td><div>fe80::2807:4e7f:d1b2:47d0%13</div></td></tr></table></div></td></tr><tr><td style="font-weight:bold;vertical-align:top;">web2py_version</td><td style="vertical-align:top;">:</td><td><div>2.9.12-stable+timestamp.2015.01.17.00.07.04</div></td></tr></table></div></td></tr><tr><td style="font-weight:bold;vertical-align:top;">is_https</td><td style="vertical-align:top;">:</td><td><div>False</div></td></tr><tr><td style="font-weight:bold;vertical-align:top;">is_local</td><td style="vertical-align:top;">:</td><td><div>True</div></td></tr><tr><td style="font-weight:bold;vertical-align:top;">is_restful</td><td style="vertical-align:top;">:</td><td><div>False</div></td></tr><tr><td style="font-weight:bold;vertical-align:top;">is_sheduler</td><td style="vertical-align:top;">:</td><td><div>None</div></td></tr><tr><td style="font-weight:bold;vertical-align:top;">is_shell</td><td style="vertical-align:top;">:</td><td><div>None</div></td></tr><tr><td style="font-weight:bold;vertical-align:top;">now</td><td style="vertical-align:top;">:</td><td><div>datetime.datetime(2015, 3, 13, 20, 30, 57, 368000)</div></td></tr><tr><td style="font-weight:bold;vertical-align:top;">raw_args</td><td style="vertical-align:top;">:</td><td><div></div></td></tr><tr><td style="font-weight:bold;vertical-align:top;">raw_extension</td><td style="vertical-align:top;">:</td><td><div>None</div></td></tr><tr><td style="font-weight:bold;vertical-align:top;">url</td><td style="vertical-align:top;">:</td><td><div>/Frick/default/save_state</div></td></tr><tr><td style="font-weight:bold;vertical-align:top;">utcnow</td><td style="vertical-align:top;">:</td><td><div>datetime.datetime(2015, 3, 14, 0, 30, 57, 368000)</div></td></tr><tr><td style="font-weight:bold;vertical-align:top;">uuid</td><td style="vertical-align:top;">:</td><td><div>Frick/127.0.0.1.2015-03-13.20-30-57.3b36f087-7669-48d0-9fff-6291ce941221</div></td></tr><tr><td style="font-weight:bold;vertical-align:top;">wsgi</td><td style="vertical-align:top;">:</td><td><div>&lt;gluon.main.LazyWSGI object at 0x0000000003CCD4A8&gt;</div></td></tr></table></div>'
tRp58
sS'frames'
p59
(lp60
(dp61
S'file'
p62
S'D:\\Applications\\web2py-master\\gluon\\restricted.py'
p63
sS'dump'
p64
(dp65
S'environment'
p66
S"{'A': <class 'gluon.html.A'>, 'ANY_OF': <class 'gluon.validators.ANY_OF'>, 'ASSIGNJS': <function ASSIGNJS>, 'Auth': <class 'gluon.tools.Auth'>, 'B': <class 'gluon.html.B'>, 'BEAUTIFY': <class 'gluon.html.BEAUTIFY'>, 'BODY': <class 'gluon.html.BODY'>, 'BR': <class 'gluon.html.BR'>, 'BUTTON': <class 'gluon.html.BUTTON'>, 'CAT': <class 'gluon.html.CAT'>, ...}"
p67
sS'ccode'
p68
S'<code object <module> at 0000000003C1B7B0, file ...lications\\Frick\\controllers/default.py", line 12>'
p69
ssS'lnum'
p70
I224
sS'lines'
p71
(dp72
I224
S'        exec ccode in environment'
p73
sI225
S'    except HTTP:'
p74
sI226
S'        raise'
p75
sI227
S'    except RestrictedError:'
p76
sI228
S'        # do not encapsulate (obfuscate) the original RestrictedError'
p77
sI219
S'    try:'
p78
sI220
S'        if isinstance(code, types.CodeType):'
p79
sI221
S'            ccode = code'
p80
sI222
S'        else:'
p81
sI223
S'            ccode = compile2(code, layer)'
p82
ssS'call'
p83
S"(code='# -*- coding: utf-8 -*-\\n# this file is released ...es)\\n\\nresponse._vars=response._caller(save_state)\\n', environment={'A': <class 'gluon.html.A'>, 'ANY_OF': <class 'gluon.validators.ANY_OF'>, 'ASSIGNJS': <function ASSIGNJS>, 'Auth': <class 'gluon.tools.Auth'>, 'B': <class 'gluon.html.B'>, 'BEAUTIFY': <class 'gluon.html.BEAUTIFY'>, 'BODY': <class 'gluon.html.BODY'>, 'BR': <class 'gluon.html.BR'>, 'BUTTON': <class 'gluon.html.BUTTON'>, 'CAT': <class 'gluon.html.CAT'>, ...}, layer=r'D:\\Applications\\web2py-master\\applications\\Frick\\controllers/default.py')"
p84
sS'func'
p85
S'restricted'
p86
sa(dp87
g62
S'D:\\Applications\\web2py-master\\applications\\Frick\\controllers\\default.py'
p88
sg64
(dp89
sg70
I211
sg71
(dp90
I200
S'def api():'
p91
sI201
S'    """'
p92
sI202
S'    this is example of API with access control'
p93
sI203
S'    WEB2PY provides Hypermedia API (Collection+JSON) Experimental'
p94
sI204
S'    """'
p95
sI205
S'    from gluon.contrib.hypermedia import Collection'
p96
sI206
S'    rules = {'
p97
sI207
S"        '<tablename>': {'GET':{},'POST':{},'PUT':{},'DELETE':{}},"
p98
sI208
S'        }'
p99
sI209
S'    return Collection(db).process(request,response,rules)'
p100
ssg83
S'()'
p101
sg85
S'<module>'
p102
sa(dp103
g62
S'D:\\Applications\\web2py-master\\gluon\\globals.py'
p104
sg64
(dp105
S'self'
p106
S'undefined'
p107
sS'f'
S'<function save_state>'
p108
ssg70
I393
sg71
(dp109
I388
S"        self.flash = ''            # used by the default view layout"
p110
sI389
S'        self.meta = Storage()      # used by web2py_ajax.html'
p111
sI390
S'        self.menu = []             # used by the default view layout'
p112
sI391
S'        self.files = []            # used by web2py_ajax.html'
p113
sI392
S'        self._vars = None'
p114
sI393
S'        self._caller = lambda f: f()'
p115
sI394
S'        self._view_environment = None'
p116
sI395
S'        self._custom_commit = None'
p117
sI396
S'        self._custom_rollback = None'
p118
sI397
S"        self.generic_patterns = ['*']"
p119
ssg83
S'(f=<function save_state>)'
p120
sg85
S'<lambda>'
p121
sa(dp122
g62
S'D:\\Applications\\web2py-master\\applications\\Frick\\controllers\\default.py'
p123
sg64
(dp124
S'filehandler'
p125
S"<open file 'D:\\\\Applications\\\\web2py-master\\\\app.../states/user/outro test.lightboxstate', mode 'w'>"
p126
sS'json'
p127
S"<module 'json' from 'D:\\Applications\\Python 2.7.8\\lib\\json\\__init__.pyc'>"
p128
sS'filehandler.write'
p129
S'<built-in method write of file object>'
p130
sS'data'
p131
S'r\'"\\\\menu\\n0\\n1\\n2\\n3\\n5\\n6\\n7\\n\\\\menu\\n\\\\lightbox...ration\\":\\"source-over\\",\\"src\\":\\"data:image/png\''
p132
sS'json.loads'
p133
S'<function loads>'
p134
ssg70
I66
sg71
(dp135
I64
S'\tfilehandler = open(file, "w")'
p136
sI65
S'    #for line in file_contents:'
p137
sI66
S'\tfilehandler.write(json.loads(data))'
p138
sI67
S'\tfilehandler.close()'
p139
sI68
S'\t#filenames = []'
p140
sI69
S'\t#for x in os.listdir(path):'
p141
sI70
S'\t#\tfilenames.append([x[:-14], time.ctime(os.path.getmtime(path + x))])'
p142
sI61
S''
sI62
S"\tfile = os.path.join(request.folder, 'static/states/user/', filename + '.lightboxstate')"
p143
sI63
S''
ssg83
S'()'
p144
sg85
S'save_state'
p145
sa(dp146
g62
S'D:\\Applications\\Python 2.7.8\\lib\\json\\__init__.py'
p147
sg64
(dp148
S's'
S'r\'"\\\\menu\\n0\\n1\\n2\\n3\\n5\\n6\\n7\\n\\\\menu\\n\\\\lightbox...ration\\":\\"source-over\\",\\"src\\":\\"data:image/png\''
p149
sS'global _default_decoder'
p150
S'<json.decoder.JSONDecoder object>'
p151
sS'_default_decoder.decode'
p152
S'<bound method JSONDecoder.decode of <json.decoder.JSONDecoder object>>'
p153
ssg70
I338
sg71
(dp154
I333
S''
sI334
S'    """'
p155
sI335
S'    if (cls is None and encoding is None and object_hook is None and'
p156
sI336
S'            parse_int is None and parse_float is None and'
p157
sI337
S'            parse_constant is None and object_pairs_hook is None and not kw):'
p158
sI338
S'        return _default_decoder.decode(s)'
p159
sI339
S'    if cls is None:'
p160
sI340
S'        cls = JSONDecoder'
p161
sI341
S'    if object_hook is not None:'
p162
sI342
S"        kw['object_hook'] = object_hook"
p163
ssg83
S'(s=r\'"\\\\menu\\n0\\n1\\n2\\n3\\n5\\n6\\n7\\n\\\\menu\\n\\\\lightbox...ration\\":\\"source-over\\",\\"src\\":\\"data:image/png\', encoding=None, cls=None, object_hook=None, parse_float=None, parse_int=None, parse_constant=None, object_pairs_hook=None, **kw={})'
p164
sg85
S'loads'
p165
sa(dp166
g62
S'D:\\Applications\\Python 2.7.8\\lib\\json\\decoder.py'
p167
sg64
(dp168
S').end'
p169
g107
sS'end'
p170
g107
sS'idx'
p171
g107
sS'_w'
p172
S'<built-in method match of _sre.SRE_Pattern object>'
p173
sS'self'
p174
S'<json.decoder.JSONDecoder object>'
p175
sS's'
S'r\'"\\\\menu\\n0\\n1\\n2\\n3\\n5\\n6\\n7\\n\\\\menu\\n\\\\lightbox...ration\\":\\"source-over\\",\\"src\\":\\"data:image/png\''
p176
sS'self.raw_decode'
p177
S'<bound method JSONDecoder.raw_decode of <json.decoder.JSONDecoder object>>'
p178
sS'obj'
p179
g107
ssg70
I366
sg71
(dp180
I361
S'    def decode(self, s, _w=WHITESPACE.match):'
p181
sI362
S'        """Return the Python representation of ``s`` (a ``str`` or ``unicode``'
p182
sI363
S'        instance containing a JSON document)'
p183
sI364
S''
sI365
S'        """'
p184
sI366
S'        obj, end = self.raw_decode(s, idx=_w(s, 0).end())'
p185
sI367
S'        end = _w(s, end).end()'
p186
sI368
S'        if end != len(s):'
p187
sI369
S'            raise ValueError(errmsg("Extra data", s, end, len(s)))'
p188
sI370
S'        return obj'
p189
ssg83
S'(self=<json.decoder.JSONDecoder object>, s=r\'"\\\\menu\\n0\\n1\\n2\\n3\\n5\\n6\\n7\\n\\\\menu\\n\\\\lightbox...ration\\":\\"source-over\\",\\"src\\":\\"data:image/png\', _w=<built-in method match of _sre.SRE_Pattern object>)'
p190
sg85
S'decode'
p191
sa(dp192
g62
S'D:\\Applications\\Python 2.7.8\\lib\\json\\decoder.py'
p193
sg64
(dp194
S'end'
p195
g107
sS'idx'
p196
S'0'
sS'self'
p197
S'<json.decoder.JSONDecoder object>'
p198
sS's'
S'r\'"\\\\menu\\n0\\n1\\n2\\n3\\n5\\n6\\n7\\n\\\\menu\\n\\\\lightbox...ration\\":\\"source-over\\",\\"src\\":\\"data:image/png\''
p199
sS'obj'
p200
g107
sS'self.scan_once'
p201
S'<_json.Scanner object>'
p202
ssg70
I382
sg71
(dp203
I384
S'            raise ValueError("No JSON object could be decoded")'
p204
sI385
S'        return obj, end'
p205
sI376
S''
sI377
S'        This can be used to decode a JSON document from a string that may'
p206
sI378
S'        have extraneous data at the end.'
p207
sI379
S''
sI380
S'        """'
p208
sI381
S'        try:'
p209
sI382
S'            obj, end = self.scan_once(s, idx)'
p210
sI383
S'        except StopIteration:'
p211
ssg83
S'(self=<json.decoder.JSONDecoder object>, s=r\'"\\\\menu\\n0\\n1\\n2\\n3\\n5\\n6\\n7\\n\\\\menu\\n\\\\lightbox...ration\\":\\"source-over\\",\\"src\\":\\"data:image/png\', idx=0)'
p212
sg85
S'raw_decode'
p213
sasS'pyver'
p214
S'Python 2.7.8: D:\\Applications\\Python 2.7.8\\python.exe (prefix: D:\\Applications\\Python 2.7.8)'
p215
sS'session'
p216
g57
(S's\x1a\x00\x00\x00<div><table></table></div>'
tRp217
sS'etype'
p218
S"<type 'exceptions.ValueError'>"
p219
sS'date'
p220
S'Fri Mar 13 20:30:57 2015'
p221
sS'response'
p222
g57
(S's\xaf2\x00\x00<div><table><tr><td style="font-weight:bold;vertical-align:top;">body</td><td style="vertical-align:top;">:</td><td><div>&lt;cStringIO.StringO object at 0x0000000003CCD998&gt;</div></td></tr><tr><td style="font-weight:bold;vertical-align:top;">cookies</td><td style="vertical-align:top;">:</td><td><div><table><tr><td style="font-weight:bold;vertical-align:top;">session_id_frick</td><td style="vertical-align:top;">:</td><td><div>127.0.0.1-dd355b60-e856-45c9-ae40-fb509e907da0<table><tr><td style="font-weight:bold;vertical-align:top;">comment</td><td style="vertical-align:top;">:</td><td><div></div></td></tr><tr><td style="font-weight:bold;vertical-align:top;">domain</td><td style="vertical-align:top;">:</td><td><div></div></td></tr><tr><td style="font-weight:bold;vertical-align:top;">expires</td><td style="vertical-align:top;">:</td><td><div></div></td></tr><tr><td style="font-weight:bold;vertical-align:top;">httponly</td><td style="vertical-align:top;">:</td><td><div></div></td></tr><tr><td style="font-weight:bold;vertical-align:top;">max-age</td><td style="vertical-align:top;">:</td><td><div></div></td></tr><tr><td style="font-weight:bold;vertical-align:top;">path</td><td style="vertical-align:top;">:</td><td><div>/</div></td></tr><tr><td style="font-weight:bold;vertical-align:top;">secure</td><td style="vertical-align:top;">:</td><td><div></div></td></tr><tr><td style="font-weight:bold;vertical-align:top;">version</td><td style="vertical-align:top;">:</td><td><div></div></td></tr></table></div></td></tr></table></div></td></tr><tr><td style="font-weight:bold;vertical-align:top;">delimiters</td><td style="vertical-align:top;">:</td><td><div><table><tr><td><div>{{</div></td></tr><tr><td><div>}}</div></td></tr></table></div></td></tr><tr><td style="font-weight:bold;vertical-align:top;">files</td><td style="vertical-align:top;">:</td><td><div><table></table></div></td></tr><tr><td style="font-weight:bold;vertical-align:top;">flash</td><td style="vertical-align:top;">:</td><td><div></div></td></tr><tr><td style="font-weight:bold;vertical-align:top;">form_label_separator</td><td style="vertical-align:top;">:</td><td><div>: </div></td></tr><tr><td style="font-weight:bold;vertical-align:top;">formstyle</td><td style="vertical-align:top;">:</td><td><div>table3cols</div></td></tr><tr><td style="font-weight:bold;vertical-align:top;">generic_patterns</td><td style="vertical-align:top;">:</td><td><div><table><tr><td><div>*</div></td></tr></table></div></td></tr><tr><td style="font-weight:bold;vertical-align:top;">google_analytics_id</td><td style="vertical-align:top;">:</td><td><div>None</div></td></tr><tr><td style="font-weight:bold;vertical-align:top;">headers</td><td style="vertical-align:top;">:</td><td><div><table><tr><td style="font-weight:bold;vertical-align:top;">X-Powered-By</td><td style="vertical-align:top;">:</td><td><div>web2py</div></td></tr></table></div></td></tr><tr><td style="font-weight:bold;vertical-align:top;">logo</td><td style="vertical-align:top;">:</td><td><div><a class="brand" href="http://www.web2py.com/"><b>web<span>2</span>py</b>&trade;&nbsp;</a></div></td></tr><tr><td style="font-weight:bold;vertical-align:top;">menu</td><td style="vertical-align:top;">:</td><td><div><table><tr><td><div><table><tr><td><div>Principal</div></td></tr><tr><td><div>False</div></td></tr><tr><td><div>/Frick/default/index</div></td></tr><tr><td><div><table></table></div></td></tr></table></div></td></tr><tr><td><div><table><tr><td><div><span class="highlighted">web2py</span></div></td></tr><tr><td><div>False</div></td></tr><tr><td><div>http://web2py.com</div></td></tr><tr><td><div><table><tr><td><div><table><tr><td><div>Meus sites</div></td></tr><tr><td><div>False</div></td></tr><tr><td><div>/admin/default/site</div></td></tr></table></div></td></tr><tr><td><div><table><tr><td><div>Esta aplica\xc3\xa7\xc3\xa3o</div></td></tr><tr><td><div>False</div></td></tr><tr><td><div>/admin/default/design/Frick</div></td></tr><tr><td><div>[(&lt;lazyT &#x27;Controller&#x27;&gt;, False, &#x27;/admin/default/edit/Frick/controllers/default.py&#x27;), (&lt;lazyT &#x27;View&#x27;&gt;, False, &#x27;/admin/default/edit/Frick/views/default/save_state.html&#x27;), (&lt;lazyT &#x27;Layout&#x27;&gt;, False, &#x27;/admin/default/edit/Frick/views/layout.html&#x27;), (&lt;lazyT &#x27;Stylesheet&#x27;&gt;, False, &#x27;/admin/default/edit/Frick/static/css/web2py.css&#x27;), (&lt;lazyT &#x27;DB Model&#x27;&gt;, False, &#x27;/admin/default/edit/Frick/models/db.py&#x27;), (&lt;lazyT &#x27;Menu Model&#x27;&gt;, False, &#x27;/admin/default/edit/Frick/models/menu.py&#x27;), (&lt;lazyT &#x27;Database&#x27;&gt;, False, &#x27;/Frick/appadmin/index&#x27;), (&lt;lazyT &#x27;Errors&#x27;&gt;, False, &#x27;/admin/default/errors/Frick&#x27;), (&lt;lazyT &#x27;About&#x27;&gt;, False, &#x27;/admin/default/about/Frick&#x27;)]</div></td></tr></table></div></td></tr><tr><td><div><table><tr><td><div>web2py.com</div></td></tr><tr><td><div>False</div></td></tr><tr><td><div>http://www.web2py.com</div></td></tr><tr><td><div>[(&lt;lazyT &#x27;Download&#x27;&gt;, False, &#x27;http://www.web2py.com/examples/default/download&#x27;), (&lt;lazyT &#x27;Support&#x27;&gt;, False, &#x27;http://www.web2py.com/examples/default/support&#x27;), (&lt;lazyT &#x27;Demo&#x27;&gt;, False, &#x27;http://web2py.com/demo_admin&#x27;), (&lt;lazyT &#x27;Quick Examples&#x27;&gt;, False, &#x27;http://web2py.com/examples/default/examples&#x27;), (&lt;lazyT &#x27;FAQ&#x27;&gt;, False, &#x27;http://web2py.com/AlterEgo&#x27;), (&lt;lazyT &#x27;Videos&#x27;&gt;, False, &#x27;http://www.web2py.com/examples/default/videos/&#x27;), (&lt;lazyT &#x27;Free Applications&#x27;&gt;, False, &#x27;http://web2py.com/appliances&#x27;), (&lt;lazyT &#x27;Plugins&#x27;&gt;, False, &#x27;http://web2py.com/plugins&#x27;), (&lt;lazyT &#x27;Layouts&#x27;&gt;, False, &#x27;http://web2py.com/layouts&#x27;), (&lt;lazyT &#x27;Recipes&#x27;&gt;, False, &#x27;http://web2pyslices.com/&#x27;), (&lt;lazyT &#x27;Semantic&#x27;&gt;, False, &#x27;http://web2py.com/semantic&#x27;)]</div></td></tr></table></div></td></tr><tr><td><div><table><tr><td><div>Documenta\xc3\xa7\xc3\xa3o</div></td></tr><tr><td><div>False</div></td></tr><tr><td><div>http://www.web2py.com/book</div></td></tr><tr><td><div>[(&lt;lazyT &#x27;Preface&#x27;&gt;, False, &#x27;http://www.web2py.com/book/default/chapter/00&#x27;), (&lt;lazyT &#x27;Introduction&#x27;&gt;, False, &#x27;http://www.web2py.com/book/default/chapter/01&#x27;), (&lt;lazyT &#x27;Python&#x27;&gt;, False, &#x27;http://www.web2py.com/book/default/chapter/02&#x27;), (&lt;lazyT &#x27;Overview&#x27;&gt;, False, &#x27;http://www.web2py.com/book/default/chapter/03&#x27;), (&lt;lazyT &#x27;The Core&#x27;&gt;, False, &#x27;http://www.web2py.com/book/default/chapter/04&#x27;), (&lt;lazyT &#x27;The Views&#x27;&gt;, False, &#x27;http://www.web2py.com/book/default/chapter/05&#x27;), (&lt;lazyT &#x27;Database&#x27;&gt;, False, &#x27;http://www.web2py.com/book/default/chapter/06&#x27;), (&lt;lazyT &#x27;Forms and Validators&#x27;&gt;, False, &#x27;http://www.web2py.com/book/default/chapter/07&#x27;), (&lt;lazyT &#x27;Email and SMS&#x27;&gt;, False, &#x27;http://www.web2py.com/book/default/chapter/08&#x27;), (&lt;lazyT &#x27;Access Control&#x27;&gt;, False, &#x27;http://www.web2py.com/book/default/chapter/09&#x27;), (&lt;lazyT &#x27;Services&#x27;&gt;, False, &#x27;http://www.web2py.com/book/default/chapter/10&#x27;), (&lt;lazyT &#x27;Ajax Recipes&#x27;&gt;, False, &#x27;http://www.web2py.com/book/default/chapter/11&#x27;), (&lt;lazyT &#x27;Components and Plugins&#x27;&gt;, False, &#x27;http://www.web2py.com/book/default/chapter/12&#x27;), (&lt;lazyT &#x27;Deployment Recipes&#x27;&gt;, False, &#x27;http://www.web2py.com/book/default/chapter/13&#x27;), (&lt;lazyT &#x27;Other Recipes&#x27;&gt;, False, &#x27;http://www.web2py.com/book/default/chapter/14&#x27;), (&lt;lazyT &#x27;Buy this book&#x27;&gt;, False, &#x27;http://stores.lulu.com/web2py&#x27;)]</div></td></tr></table></div></td></tr><tr><td><div><table><tr><td><div>Comunidade</div></td></tr><tr><td><div>False</div></td></tr><tr><td><div>None</div></td></tr><tr><td><div>[(&lt;lazyT &#x27;Groups&#x27;&gt;, False, &#x27;http://www.web2py.com/examples/default/usergroups&#x27;), (&lt;lazyT &#x27;Twitter&#x27;&gt;, False, &#x27;http://twitter.com/web2py&#x27;), (&lt;lazyT &#x27;Live Chat&#x27;&gt;, False, &#x27;http://webchat.freenode.net/?channels=web2py&#x27;)]</div></td></tr></table></div></td></tr><tr><td><div><table><tr><td><div>Plugins</div></td></tr><tr><td><div>False</div></td></tr><tr><td><div>None</div></td></tr><tr><td><div>[(&#x27;plugin_wiki&#x27;, False, &#x27;http://web2py.com/examples/default/download&#x27;), (&lt;lazyT &#x27;Other Plugins&#x27;&gt;, False, &#x27;http://web2py.com/plugins&#x27;), (&lt;lazyT &#x27;Layout Plugins&#x27;&gt;, False, &#x27;http://web2py.com/layouts&#x27;)]</div></td></tr></table></div></td></tr></table></div></td></tr></table></div></td></tr></table></div></td></tr><tr><td style="font-weight:bold;vertical-align:top;">meta</td><td style="vertical-align:top;">:</td><td><div><table><tr><td style="font-weight:bold;vertical-align:top;">author</td><td style="vertical-align:top;">:</td><td><div>Your Name &lt;you@example.com&gt;</div></td></tr><tr><td style="font-weight:bold;vertical-align:top;">generator</td><td style="vertical-align:top;">:</td><td><div>Web2py Web Framework</div></td></tr><tr><td style="font-weight:bold;vertical-align:top;">keywords</td><td style="vertical-align:top;">:</td><td><div>web2py, python, framework</div></td></tr></table></div></td></tr><tr><td style="font-weight:bold;vertical-align:top;">models_to_run</td><td style="vertical-align:top;">:</td><td><div><table><tr><td><div>^\\w+\\.py$</div></td></tr><tr><td><div>^default/\\w+\\.py$</div></td></tr><tr><td><div>^default/save_state/\\w+\\.py$</div></td></tr></table></div></td></tr><tr><td style="font-weight:bold;vertical-align:top;">postprocessing</td><td style="vertical-align:top;">:</td><td><div><table></table></div></td></tr><tr><td style="font-weight:bold;vertical-align:top;">session_client</td><td style="vertical-align:top;">:</td><td><div>127.0.0.1</div></td></tr><tr><td style="font-weight:bold;vertical-align:top;">session_cookie_compression_level</td><td style="vertical-align:top;">:</td><td><div>None</div></td></tr><tr><td style="font-weight:bold;vertical-align:top;">session_cookie_expires</td><td style="vertical-align:top;">:</td><td><div>None</div></td></tr><tr><td style="font-weight:bold;vertical-align:top;">session_cookie_key</td><td style="vertical-align:top;">:</td><td><div>None</div></td></tr><tr><td style="font-weight:bold;vertical-align:top;">session_data_name</td><td style="vertical-align:top;">:</td><td><div>session_data_frick</div></td></tr><tr><td style="font-weight:bold;vertical-align:top;">session_file</td><td style="vertical-align:top;">:</td><td><div>&lt;open file &#x27;D:\\\\Applications\\\\web2py-master\\\\applications\\\\Frick\\\\sessions\\\\1be\\\\093\\\\127.0.0.1-dd355b60-e856-45c9-ae40-fb509e907da0&#x27;, mode &#x27;rb+&#x27; at 0x0000000003D75C00&gt;</div></td></tr><tr><td style="font-weight:bold;vertical-align:top;">session_filename</td><td style="vertical-align:top;">:</td><td><div>D:\\Applications\\web2py-master\\applications\\Frick\\sessions\\127.0.0.1-dd355b60-e856-45c9-ae40-fb509e907da0</div></td></tr><tr><td style="font-weight:bold;vertical-align:top;">session_hash</td><td style="vertical-align:top;">:</td><td><div>90f5d7524b75a44f1f4c965957f26ad7</div></td></tr><tr><td style="font-weight:bold;vertical-align:top;">session_id</td><td style="vertical-align:top;">:</td><td><div>127.0.0.1-dd355b60-e856-45c9-ae40-fb509e907da0</div></td></tr><tr><td style="font-weight:bold;vertical-align:top;">session_id_name</td><td style="vertical-align:top;">:</td><td><div>session_id_frick</div></td></tr><tr><td style="font-weight:bold;vertical-align:top;">session_locked</td><td style="vertical-align:top;">:</td><td><div>True</div></td></tr><tr><td style="font-weight:bold;vertical-align:top;">session_masterapp</td><td style="vertical-align:top;">:</td><td><div>Frick</div></td></tr><tr><td style="font-weight:bold;vertical-align:top;">session_new</td><td style="vertical-align:top;">:</td><td><div>False</div></td></tr><tr><td style="font-weight:bold;vertical-align:top;">session_storage_type</td><td style="vertical-align:top;">:</td><td><div>file</div></td></tr><tr><td style="font-weight:bold;vertical-align:top;">status</td><td style="vertical-align:top;">:</td><td><div>200</div></td></tr><tr><td style="font-weight:bold;vertical-align:top;">subtitle</td><td style="vertical-align:top;">:</td><td><div></div></td></tr><tr><td style="font-weight:bold;vertical-align:top;">title</td><td style="vertical-align:top;">:</td><td><div>Frick</div></td></tr><tr><td style="font-weight:bold;vertical-align:top;">view</td><td style="vertical-align:top;">:</td><td><div>default/save_state.html</div></td></tr></table></div>'
tRp223
sS'locals'
p224
(dp225
S's'
S'r\'"\\\\menu\\n0\\n1\\n2\\n3\\n5\\n6\\n7\\n\\\\menu\\n\\\\lightbox...ration\\":\\"source-over\\",\\"src\\":\\"data:image/png\''
p226
sS'self'
p227
S'<json.decoder.JSONDecoder object>'
p228
sS'idx'
p229
S'0'
sssS'traceback'
p230
S'Traceback (most recent call last):\n  File "D:\\Applications\\web2py-master\\gluon\\restricted.py", line 224, in restricted\n    exec ccode in environment\n  File "D:\\Applications\\web2py-master\\applications\\Frick\\controllers/default.py", line 211, in <module>\n  File "D:\\Applications\\web2py-master\\gluon\\globals.py", line 393, in <lambda>\n    self._caller = lambda f: f()\n  File "D:\\Applications\\web2py-master\\applications\\Frick\\controllers/default.py", line 66, in save_state\n    filehandler.write(json.loads(data))\n  File "D:\\Applications\\Python 2.7.8\\lib\\json\\__init__.py", line 338, in loads\n    return _default_decoder.decode(s)\n  File "D:\\Applications\\Python 2.7.8\\lib\\json\\decoder.py", line 366, in decode\n    obj, end = self.raw_decode(s, idx=_w(s, 0).end())\n  File "D:\\Applications\\Python 2.7.8\\lib\\json\\decoder.py", line 382, in raw_decode\n    obj, end = self.scan_once(s, idx)\nValueError: Unterminated string starting at: line 1 column 1 (char 0)\n'
p231
s.